
/home/ale/Downloads/Steward-fu-FLIP/Extra/miyoo-flip-main/rkbin/bin/rk35/rk3568_bl31_v1.44.elf:     file format elf64-littleaarch64


Disassembly of section .text_sram_init:

00000000fdcc1000 <.text_sram_init>:
    fdcc1000:	d53be022 	mrs	x2, cntpct_el0
    fdcc1004:	52800301 	mov	w1, #0x18                  	// #24
    fdcc1008:	1b017c00 	mul	w0, w0, w1
    fdcc100c:	d53be021 	mrs	x1, cntpct_el0
    fdcc1010:	cb020021 	sub	x1, x1, x2
    fdcc1014:	eb00003f 	cmp	x1, x0
    fdcc1018:	54ffffa3 	b.cc	0xfdcc100c  // b.lo, b.ul, b.last
    fdcc101c:	d65f03c0 	ret
    fdcc1020:	a9bf7bfd 	stp	x29, x30, [sp, #-16]!
    fdcc1024:	52884803 	mov	w3, #0x4240                	// #16960
    fdcc1028:	72a001e3 	movk	w3, #0xf, lsl #16
    fdcc102c:	910003fd 	mov	x29, sp
    fdcc1030:	528467e1 	mov	w1, #0x233f                	// #9023
    fdcc1034:	1ac30804 	udiv	w4, w0, w3
    fdcc1038:	72a0c0a1 	movk	w1, #0x605, lsl #16
    fdcc103c:	6b01001f 	cmp	w0, w1
    fdcc1040:	54000c29 	b.ls	0xfdcc11c4  // b.plast
    fdcc1044:	528277e1 	mov	w1, #0x13bf                	// #5055
    fdcc1048:	72a12001 	movk	w1, #0x900, lsl #16
    fdcc104c:	6b01001f 	cmp	w0, w1
    fdcc1050:	54000c09 	b.ls	0xfdcc11d0  // b.plast
    fdcc1054:	528087e1 	mov	w1, #0x43f                 	// #1087
    fdcc1058:	72a17f61 	movk	w1, #0xbfb, lsl #16
    fdcc105c:	6b01001f 	cmp	w0, w1
    fdcc1060:	54000bc9 	b.ls	0xfdcc11d8  // b.plast
    fdcc1064:	529ca7e1 	mov	w1, #0xe53f                	// #58687
    fdcc1068:	72a23e01 	movk	w1, #0x11f0, lsl #16
    fdcc106c:	6b01001f 	cmp	w0, w1
    fdcc1070:	54000ba9 	b.ls	0xfdcc11e4  // b.plast
    fdcc1074:	5298c7e1 	mov	w1, #0xc63f                	// #50751
    fdcc1078:	72a2fcc1 	movk	w1, #0x17e6, lsl #16
    fdcc107c:	6b01001f 	cmp	w0, w1
    fdcc1080:	54000b69 	b.ls	0xfdcc11ec  // b.plast
    fdcc1084:	529107e1 	mov	w1, #0x883f                	// #34879
    fdcc1088:	52800022 	mov	w2, #0x1                   	// #1
    fdcc108c:	72a47a41 	movk	w1, #0x23d2, lsl #16
    fdcc1090:	6b01001f 	cmp	w0, w1
    fdcc1094:	540009a9 	b.ls	0xfdcc11c8  // b.plast
    fdcc1098:	528947e1 	mov	w1, #0x4a3f                	// #19007
    fdcc109c:	52800043 	mov	w3, #0x2                   	// #2
    fdcc10a0:	72a5f7c1 	movk	w1, #0x2fbe, lsl #16
    fdcc10a4:	6b01001f 	cmp	w0, w1
    fdcc10a8:	52800081 	mov	w1, #0x4                   	// #4
    fdcc10ac:	1a839021 	csel	w1, w1, w3, ls	// ls = plast
    fdcc10b0:	1b027c23 	mul	w3, w1, w2
    fdcc10b4:	52a00185 	mov	w5, #0xc0000               	// #786432
    fdcc10b8:	1b047c63 	mul	w3, w3, w4
    fdcc10bc:	52800304 	mov	w4, #0x18                  	// #24
    fdcc10c0:	1ac40863 	udiv	w3, w3, w4
    fdcc10c4:	d2801804 	mov	x4, #0xc0                  	// #192
    fdcc10c8:	f2bfba44 	movk	x4, #0xfdd2, lsl #16
    fdcc10cc:	b9000085 	str	w5, [x4]
    fdcc10d0:	52948004 	mov	w4, #0xa400                	// #41984
    fdcc10d4:	72a3ef04 	movk	w4, #0x1f78, lsl #16
    fdcc10d8:	6b04001f 	cmp	w0, w4
    fdcc10dc:	d2802500 	mov	x0, #0x128                 	// #296
    fdcc10e0:	f2bfba40 	movk	x0, #0xfdd2, lsl #16
    fdcc10e4:	54000888 	b.hi	0xfdcc11f4  // b.pmore
    fdcc10e8:	52a00064 	mov	w4, #0x30000               	// #196608
    fdcc10ec:	b9000004 	str	w4, [x0]
    fdcc10f0:	d2800480 	mov	x0, #0x24                  	// #36
    fdcc10f4:	f2bfba40 	movk	x0, #0xfdd2, lsl #16
    fdcc10f8:	320383e4 	mov	w4, #0x20002000            	// #536879104
    fdcc10fc:	2a013061 	orr	w1, w3, w1, lsl #12
    fdcc1100:	b9000004 	str	w4, [x0]
    fdcc1104:	d2800400 	mov	x0, #0x20                  	// #32
    fdcc1108:	f2bfba40 	movk	x0, #0xfdd2, lsl #16
    fdcc110c:	32103821 	orr	w1, w1, #0x7fff0000
    fdcc1110:	b9000001 	str	w1, [x0]
    fdcc1114:	d0000021 	adrp	x1, 0xfdcc7000
    fdcc1118:	91000021 	add	x1, x1, #0x0
    fdcc111c:	b940a020 	ldr	w0, [x1, #160]
    fdcc1120:	34000700 	cbz	w0, 0xfdcc1200
    fdcc1124:	d2800504 	mov	x4, #0x28                  	// #40
    fdcc1128:	f2bfba44 	movk	x4, #0xfdd2, lsl #16
    fdcc112c:	b9400083 	ldr	w3, [x4]
    fdcc1130:	12081c63 	and	w3, w3, #0xff000000
    fdcc1134:	b9000083 	str	w3, [x4]
    fdcc1138:	29530423 	ldp	w3, w1, [x1, #152]
    fdcc113c:	531d7063 	lsl	w3, w3, #3
    fdcc1140:	531c6c21 	lsl	w1, w1, #4
    fdcc1144:	32103021 	orr	w1, w1, #0x1fff0000
    fdcc1148:	2a002060 	orr	w0, w3, w0, lsl #8
    fdcc114c:	2a010000 	orr	w0, w0, w1
    fdcc1150:	d2800581 	mov	x1, #0x2c                  	// #44
    fdcc1154:	f2bfba41 	movk	x1, #0xfdd2, lsl #16
    fdcc1158:	b9000020 	str	w0, [x1]
    fdcc115c:	52800000 	mov	w0, #0x0                   	// #0
    fdcc1160:	531a6442 	lsl	w2, w2, #6
    fdcc1164:	52a40001 	mov	w1, #0x20000000            	// #536870912
    fdcc1168:	2a003042 	orr	w2, w2, w0, lsl #12
    fdcc116c:	52800020 	mov	w0, #0x1                   	// #1
    fdcc1170:	72a23fe0 	movk	w0, #0x11ff, lsl #16
    fdcc1174:	2a000042 	orr	w2, w2, w0
    fdcc1178:	d2800480 	mov	x0, #0x24                  	// #36
    fdcc117c:	52807d04 	mov	w4, #0x3e8                 	// #1000
    fdcc1180:	f2bfba40 	movk	x0, #0xfdd2, lsl #16
    fdcc1184:	aa0003e3 	mov	x3, x0
    fdcc1188:	b9000002 	str	w2, [x0]
    fdcc118c:	b9000001 	str	w1, [x0]
    fdcc1190:	52800020 	mov	w0, #0x1                   	// #1
    fdcc1194:	97ffff9b 	bl	0xfdcc1000
    fdcc1198:	b9400060 	ldr	w0, [x3]
    fdcc119c:	37500060 	tbnz	w0, #10, 0xfdcc11a8
    fdcc11a0:	71000484 	subs	w4, w4, #0x1
    fdcc11a4:	54ffff61 	b.ne	0xfdcc1190  // b.any
    fdcc11a8:	d2801800 	mov	x0, #0xc0                  	// #192
    fdcc11ac:	52800081 	mov	w1, #0x4                   	// #4
    fdcc11b0:	f2bfba40 	movk	x0, #0xfdd2, lsl #16
    fdcc11b4:	72a00181 	movk	w1, #0xc, lsl #16
    fdcc11b8:	b9000001 	str	w1, [x0]
    fdcc11bc:	a8c17bfd 	ldp	x29, x30, [sp], #16
    fdcc11c0:	d65f03c0 	ret
    fdcc11c4:	528000c2 	mov	w2, #0x6                   	// #6
    fdcc11c8:	528000c1 	mov	w1, #0x6                   	// #6
    fdcc11cc:	17ffffb9 	b	0xfdcc10b0
    fdcc11d0:	52800082 	mov	w2, #0x4                   	// #4
    fdcc11d4:	17fffffd 	b	0xfdcc11c8
    fdcc11d8:	52800082 	mov	w2, #0x4                   	// #4
    fdcc11dc:	52800081 	mov	w1, #0x4                   	// #4
    fdcc11e0:	17ffffb4 	b	0xfdcc10b0
    fdcc11e4:	52800042 	mov	w2, #0x2                   	// #2
    fdcc11e8:	17fffff8 	b	0xfdcc11c8
    fdcc11ec:	52800042 	mov	w2, #0x2                   	// #2
    fdcc11f0:	17fffffb 	b	0xfdcc11dc
    fdcc11f4:	52800024 	mov	w4, #0x1                   	// #1
    fdcc11f8:	72a00064 	movk	w4, #0x3, lsl #16
    fdcc11fc:	17ffffbc 	b	0xfdcc10ec
    fdcc1200:	52800020 	mov	w0, #0x1                   	// #1
    fdcc1204:	17ffffd7 	b	0xfdcc1160
    fdcc1208:	d2801082 	mov	x2, #0x84                  	// #132
    fdcc120c:	d2800601 	mov	x1, #0x30                  	// #48
    fdcc1210:	f2bfd002 	movk	x2, #0xfe80, lsl #16
    fdcc1214:	f2bfc4a1 	movk	x1, #0xfe25, lsl #16
    fdcc1218:	34000140 	cbz	w0, 0xfdcc1240
    fdcc121c:	b9400043 	ldr	w3, [x2]
    fdcc1220:	12000c00 	and	w0, w0, #0xf
    fdcc1224:	12107863 	and	w3, w3, #0xffff7fff
    fdcc1228:	b9000043 	str	w3, [x2]
    fdcc122c:	b9400022 	ldr	w2, [x1]
    fdcc1230:	2a020000 	orr	w0, w0, w2
    fdcc1234:	b9000020 	str	w0, [x1]
    fdcc1238:	52800000 	mov	w0, #0x0                   	// #0
    fdcc123c:	d65f03c0 	ret
    fdcc1240:	b9400020 	ldr	w0, [x1]
    fdcc1244:	b9400023 	ldr	w3, [x1]
    fdcc1248:	12000c00 	and	w0, w0, #0xf
    fdcc124c:	121c6c63 	and	w3, w3, #0xfffffff0
    fdcc1250:	b9000023 	str	w3, [x1]
    fdcc1254:	b9400041 	ldr	w1, [x2]
    fdcc1258:	32110021 	orr	w1, w1, #0x8000
    fdcc125c:	b9000041 	str	w1, [x2]
    fdcc1260:	17fffff7 	b	0xfdcc123c
    fdcc1264:	d2800c01 	mov	x1, #0x60                  	// #96
    fdcc1268:	f2bfc4a1 	movk	x1, #0xfe25, lsl #16
    fdcc126c:	b9400020 	ldr	w0, [x1]
    fdcc1270:	521f0000 	eor	w0, w0, #0x2
    fdcc1274:	b9000020 	str	w0, [x1]
    fdcc1278:	52800000 	mov	w0, #0x0                   	// #0
    fdcc127c:	d65f03c0 	ret
    fdcc1280:	d2bfc4a2 	mov	x2, #0xfe250000            	// #4263837696
    fdcc1284:	d0000025 	adrp	x5, 0xfdcc7000
    fdcc1288:	910000a5 	add	x5, x5, #0x0
    fdcc128c:	d2800029 	mov	x9, #0x1                   	// #1
    fdcc1290:	b9400046 	ldr	w6, [x2]
    fdcc1294:	910420a5 	add	x5, x5, #0x108
    fdcc1298:	52800007 	mov	w7, #0x0                   	// #0
    fdcc129c:	d2800004 	mov	x4, #0x0                   	// #0
    fdcc12a0:	d34c34c2 	ubfx	x2, x6, #12, #2
    fdcc12a4:	52800046 	mov	w6, #0x2                   	// #2
    fdcc12a8:	1ac228c6 	asr	w6, w6, w2
    fdcc12ac:	d2804002 	mov	x2, #0x200                 	// #512
    fdcc12b0:	f2bfc4a2 	movk	x2, #0xfe25, lsl #16
    fdcc12b4:	531b68cb 	lsl	w11, w6, #5
    fdcc12b8:	b9400042 	ldr	w2, [x2]
    fdcc12bc:	12001042 	and	w2, w2, #0x1f
    fdcc12c0:	11002042 	add	w2, w2, #0x8
    fdcc12c4:	7100845f 	cmp	w2, #0x21
    fdcc12c8:	1a9f27e8 	cset	w8, cc	// cc = lo, ul, last
    fdcc12cc:	9ac22129 	lsl	x9, x9, x2
    fdcc12d0:	11000508 	add	w8, w8, #0x1
    fdcc12d4:	d37b7cea 	ubfiz	x10, x7, #5, #32
    fdcc12d8:	52800002 	mov	w2, #0x0                   	// #0
    fdcc12dc:	710008df 	cmp	w6, #0x2
    fdcc12e0:	54000221 	b.ne	0xfdcc1324  // b.any
    fdcc12e4:	11000442 	add	w2, w2, #0x1
    fdcc12e8:	2a0203e3 	mov	w3, w2
    fdcc12ec:	35000261 	cbnz	w1, 0xfdcc1338
    fdcc12f0:	8b030143 	add	x3, x10, x3
    fdcc12f4:	b940008c 	ldr	w12, [x4]
    fdcc12f8:	8b0308a3 	add	x3, x5, x3, lsl #2
    fdcc12fc:	b900046c 	str	w12, [x3, #4]
    fdcc1300:	91001084 	add	x4, x4, #0x4
    fdcc1304:	35000240 	cbnz	w0, 0xfdcc134c
    fdcc1308:	121b7843 	and	w3, w2, #0xffffffef
    fdcc130c:	7100207f 	cmp	w3, #0x8
    fdcc1310:	540001e1 	b.ne	0xfdcc134c  // b.any
    fdcc1314:	8b0b0084 	add	x4, x4, x11
    fdcc1318:	17fffff1 	b	0xfdcc12dc
    fdcc131c:	aa0903e4 	mov	x4, x9
    fdcc1320:	17ffffed 	b	0xfdcc12d4
    fdcc1324:	11000843 	add	w3, w2, #0x2
    fdcc1328:	710004df 	cmp	w6, #0x1
    fdcc132c:	11001042 	add	w2, w2, #0x4
    fdcc1330:	1a831042 	csel	w2, w2, w3, ne	// ne = any
    fdcc1334:	17ffffed 	b	0xfdcc12e8
    fdcc1338:	8b030143 	add	x3, x10, x3
    fdcc133c:	8b0308a3 	add	x3, x5, x3, lsl #2
    fdcc1340:	b9400463 	ldr	w3, [x3, #4]
    fdcc1344:	b9000083 	str	w3, [x4]
    fdcc1348:	17ffffee 	b	0xfdcc1300
    fdcc134c:	71007c5f 	cmp	w2, #0x1f
    fdcc1350:	54fffc69 	b.ls	0xfdcc12dc  // b.plast
    fdcc1354:	110004e7 	add	w7, w7, #0x1
    fdcc1358:	6b07011f 	cmp	w8, w7
    fdcc135c:	54fffe01 	b.ne	0xfdcc131c  // b.any
    fdcc1360:	52800000 	mov	w0, #0x0                   	// #0
    fdcc1364:	d65f03c0 	ret
    fdcc1368:	d0000022 	adrp	x2, 0xfdcc7000
    fdcc136c:	91000042 	add	x2, x2, #0x0
    fdcc1370:	35000a01 	cbnz	w1, 0xfdcc14b0
    fdcc1374:	d2bfc4a1 	mov	x1, #0xfe250000            	// #4263837696
    fdcc1378:	d280002b 	mov	x11, #0x1                   	// #1
    fdcc137c:	52800009 	mov	w9, #0x0                   	// #0
    fdcc1380:	d2800008 	mov	x8, #0x0                   	// #0
    fdcc1384:	b9400027 	ldr	w7, [x1]
    fdcc1388:	d34c34e1 	ubfx	x1, x7, #12, #2
    fdcc138c:	52800047 	mov	w7, #0x2                   	// #2
    fdcc1390:	1ac128e7 	asr	w7, w7, w1
    fdcc1394:	d2804001 	mov	x1, #0x200                 	// #512
    fdcc1398:	f2bfc4a1 	movk	x1, #0xfe25, lsl #16
    fdcc139c:	531b68ec 	lsl	w12, w7, #5
    fdcc13a0:	b9400021 	ldr	w1, [x1]
    fdcc13a4:	12001021 	and	w1, w1, #0x1f
    fdcc13a8:	11002021 	add	w1, w1, #0x8
    fdcc13ac:	7100843f 	cmp	w1, #0x21
    fdcc13b0:	1a9f27ea 	cset	w10, cc	// cc = lo, ul, last
    fdcc13b4:	9ac1216b 	lsl	x11, x11, x1
    fdcc13b8:	1100054a 	add	w10, w10, #0x1
    fdcc13bc:	911b2041 	add	x1, x2, #0x6c8
    fdcc13c0:	52800006 	mov	w6, #0x0                   	// #0
    fdcc13c4:	38664824 	ldrb	w4, [x1, w6, uxtw]
    fdcc13c8:	110004c5 	add	w5, w6, #0x1
    fdcc13cc:	710008ff 	cmp	w7, #0x2
    fdcc13d0:	540001e1 	b.ne	0xfdcc140c  // b.any
    fdcc13d4:	53103c83 	lsl	w3, w4, #16
    fdcc13d8:	2a046082 	orr	w2, w4, w4, lsl #24
    fdcc13dc:	2a042063 	orr	w3, w3, w4, lsl #8
    fdcc13e0:	2a020062 	orr	w2, w3, w2
    fdcc13e4:	b8004502 	str	w2, [x8], #4
    fdcc13e8:	35000340 	cbnz	w0, 0xfdcc1450
    fdcc13ec:	121b78a2 	and	w2, w5, #0xffffffef
    fdcc13f0:	7100205f 	cmp	w2, #0x8
    fdcc13f4:	540002e1 	b.ne	0xfdcc1450  // b.any
    fdcc13f8:	8b0c0108 	add	x8, x8, x12
    fdcc13fc:	2a0503e6 	mov	w6, w5
    fdcc1400:	17fffff1 	b	0xfdcc13c4
    fdcc1404:	aa0b03e8 	mov	x8, x11
    fdcc1408:	17ffffee 	b	0xfdcc13c0
    fdcc140c:	38654822 	ldrb	w2, [x1, w5, uxtw]
    fdcc1410:	710004ff 	cmp	w7, #0x1
    fdcc1414:	110008c5 	add	w5, w6, #0x2
    fdcc1418:	540000a1 	b.ne	0xfdcc142c  // b.any
    fdcc141c:	53081c43 	lsl	w3, w2, #24
    fdcc1420:	2a024063 	orr	w3, w3, w2, lsl #16
    fdcc1424:	2a042082 	orr	w2, w4, w4, lsl #8
    fdcc1428:	17ffffee 	b	0xfdcc13e0
    fdcc142c:	38654823 	ldrb	w3, [x1, w5, uxtw]
    fdcc1430:	53185c42 	lsl	w2, w2, #8
    fdcc1434:	110010c5 	add	w5, w6, #0x4
    fdcc1438:	2a034043 	orr	w3, w2, w3, lsl #16
    fdcc143c:	11000cc2 	add	w2, w6, #0x3
    fdcc1440:	38626822 	ldrb	w2, [x1, x2]
    fdcc1444:	2a026082 	orr	w2, w4, w2, lsl #24
    fdcc1448:	2a020062 	orr	w2, w3, w2
    fdcc144c:	17ffffe6 	b	0xfdcc13e4
    fdcc1450:	71007cbf 	cmp	w5, #0x1f
    fdcc1454:	54fffd49 	b.ls	0xfdcc13fc  // b.plast
    fdcc1458:	11000529 	add	w9, w9, #0x1
    fdcc145c:	6b09015f 	cmp	w10, w9
    fdcc1460:	54fffd21 	b.ne	0xfdcc1404  // b.any
    fdcc1464:	d65f03c0 	ret
    fdcc1468:	38616860 	ldrb	w0, [x3, x1]
    fdcc146c:	1ac52800 	asr	w0, w0, w5
    fdcc1470:	12000000 	and	w0, w0, #0x1
    fdcc1474:	1ac32000 	lsl	w0, w0, w3
    fdcc1478:	91000463 	add	x3, x3, #0x1
    fdcc147c:	2a000042 	orr	w2, w2, w0
    fdcc1480:	f100807f 	cmp	x3, #0x20
    fdcc1484:	54ffff21 	b.ne	0xfdcc1468  // b.any
    fdcc1488:	9b067c80 	mul	x0, x4, x6
    fdcc148c:	5ac00842 	rev	w2, w2
    fdcc1490:	91000484 	add	x4, x4, #0x1
    fdcc1494:	f100209f 	cmp	x4, #0x8
    fdcc1498:	b8276802 	str	w2, [x0, x7]
    fdcc149c:	54fffe40 	b.eq	0xfdcc1464  // b.none
    fdcc14a0:	2a0403e5 	mov	w5, w4
    fdcc14a4:	d2800003 	mov	x3, #0x0                   	// #0
    fdcc14a8:	52800002 	mov	w2, #0x0                   	// #0
    fdcc14ac:	17ffffef 	b	0xfdcc1468
    fdcc14b0:	d2802a07 	mov	x7, #0x150                 	// #336
    fdcc14b4:	911b2041 	add	x1, x2, #0x6c8
    fdcc14b8:	d2800004 	mov	x4, #0x0                   	// #0
    fdcc14bc:	d2800186 	mov	x6, #0xc                   	// #12
    fdcc14c0:	f2bfd007 	movk	x7, #0xfe80, lsl #16
    fdcc14c4:	17fffff7 	b	0xfdcc14a0
    fdcc14c8:	52884801 	mov	w1, #0x4240                	// #16960
    fdcc14cc:	52807d06 	mov	w6, #0x3e8                 	// #1000
    fdcc14d0:	72a001e1 	movk	w1, #0xf, lsl #16
    fdcc14d4:	52800283 	mov	w3, #0x14                  	// #20
    fdcc14d8:	528001c2 	mov	w2, #0xe                   	// #14
    fdcc14dc:	1ac10800 	udiv	w0, w0, w1
    fdcc14e0:	528000e1 	mov	w1, #0x7                   	// #7
    fdcc14e4:	1b017c01 	mul	w1, w0, w1
    fdcc14e8:	531f7804 	lsl	w4, w0, #1
    fdcc14ec:	110f9c85 	add	w5, w4, #0x3e7
    fdcc14f0:	528000a4 	mov	w4, #0x5                   	// #5
    fdcc14f4:	1b037c03 	mul	w3, w0, w3
    fdcc14f8:	0b400421 	add	w1, w1, w0, lsr #1
    fdcc14fc:	1b027c02 	mul	w2, w0, w2
    fdcc1500:	110f9c21 	add	w1, w1, #0x3e7
    fdcc1504:	110f9c63 	add	w3, w3, #0x3e7
    fdcc1508:	110f9c42 	add	w2, w2, #0x3e7
    fdcc150c:	1ac60821 	udiv	w1, w1, w6
    fdcc1510:	7100143f 	cmp	w1, #0x5
    fdcc1514:	1a842021 	csel	w1, w1, w4, cs	// cs = hs, nlast
    fdcc1518:	110f9c04 	add	w4, w0, #0x3e7
    fdcc151c:	0b400484 	add	w4, w4, w0, lsr #1
    fdcc1520:	1ac60884 	udiv	w4, w4, w6
    fdcc1524:	52800046 	mov	w6, #0x2                   	// #2
    fdcc1528:	7100089f 	cmp	w4, #0x2
    fdcc152c:	1a862084 	csel	w4, w4, w6, cs	// cs = hs, nlast
    fdcc1530:	529f3fe6 	mov	w6, #0xf9ff                	// #63999
    fdcc1534:	6b06007f 	cmp	w3, w6
    fdcc1538:	540005c8 	b.hi	0xfdcc15f0  // b.pmore
    fdcc153c:	5280fa06 	mov	w6, #0x7d0                 	// #2000
    fdcc1540:	1ac60863 	udiv	w3, w3, w6
    fdcc1544:	528f9fe6 	mov	w6, #0x7cff                	// #31999
    fdcc1548:	6b06005f 	cmp	w2, w6
    fdcc154c:	54000568 	b.hi	0xfdcc15f8  // b.pmore
    fdcc1550:	52807d06 	mov	w6, #0x3e8                 	// #1000
    fdcc1554:	1ac60842 	udiv	w2, w2, w6
    fdcc1558:	52800146 	mov	w6, #0xa                   	// #10
    fdcc155c:	7100285f 	cmp	w2, #0xa
    fdcc1560:	1a862042 	csel	w2, w2, w6, cs	// cs = hs, nlast
    fdcc1564:	53017c42 	lsr	w2, w2, #1
    fdcc1568:	53017c84 	lsr	w4, w4, #1
    fdcc156c:	53017c21 	lsr	w1, w1, #1
    fdcc1570:	d2800488 	mov	x8, #0x24                  	// #36
    fdcc1574:	5280fa07 	mov	w7, #0x7d0                 	// #2000
    fdcc1578:	53071884 	lsl	w4, w4, #25
    fdcc157c:	f2bfd008 	movk	x8, #0xfe80, lsl #16
    fdcc1580:	2a013c81 	orr	w1, w4, w1, lsl #15
    fdcc1584:	2a035063 	orr	w3, w3, w3, lsl #20
    fdcc1588:	1ac708a4 	udiv	w4, w5, w7
    fdcc158c:	b9400106 	ldr	w6, [x8]
    fdcc1590:	120204c5 	and	w5, w6, #0xc0000000
    fdcc1594:	2a0428a4 	orr	w4, w5, w4, lsl #10
    fdcc1598:	2a040021 	orr	w1, w1, w4
    fdcc159c:	2a030021 	orr	w1, w1, w3
    fdcc15a0:	2a021421 	orr	w1, w1, w2, lsl #5
    fdcc15a4:	b9000101 	str	w1, [x8]
    fdcc15a8:	52801f41 	mov	w1, #0xfa                  	// #250
    fdcc15ac:	1b017c00 	mul	w0, w0, w1
    fdcc15b0:	5299ffe1 	mov	w1, #0xcfff                	// #53247
    fdcc15b4:	72a000e1 	movk	w1, #0x7, lsl #16
    fdcc15b8:	110f9c00 	add	w0, w0, #0x3e7
    fdcc15bc:	6b01001f 	cmp	w0, w1
    fdcc15c0:	54000208 	b.hi	0xfdcc1600  // b.pmore
    fdcc15c4:	1ac70800 	udiv	w0, w0, w7
    fdcc15c8:	d2800503 	mov	x3, #0x28                  	// #40
    fdcc15cc:	53103c01 	lsl	w1, w0, #16
    fdcc15d0:	f2bfd003 	movk	x3, #0xfe80, lsl #16
    fdcc15d4:	2a002021 	orr	w1, w1, w0, lsl #8
    fdcc15d8:	b9400062 	ldr	w2, [x3]
    fdcc15dc:	12081c42 	and	w2, w2, #0xff000000
    fdcc15e0:	2a000040 	orr	w0, w2, w0
    fdcc15e4:	2a000020 	orr	w0, w1, w0
    fdcc15e8:	b9000060 	str	w0, [x3]
    fdcc15ec:	d65f03c0 	ret
    fdcc15f0:	528003e3 	mov	w3, #0x1f                  	// #31
    fdcc15f4:	17ffffd4 	b	0xfdcc1544
    fdcc15f8:	528001e2 	mov	w2, #0xf                   	// #15
    fdcc15fc:	17ffffdb 	b	0xfdcc1568
    fdcc1600:	52801fe0 	mov	w0, #0xff                  	// #255
    fdcc1604:	17fffff1 	b	0xfdcc15c8
    fdcc1608:	d29e0006 	mov	x6, #0xf000                	// #61440
    fdcc160c:	d2803604 	mov	x4, #0x1b0                 	// #432
    fdcc1610:	d2804605 	mov	x5, #0x230                 	// #560
    fdcc1614:	f2a41fe6 	movk	x6, #0x20ff, lsl #16
    fdcc1618:	2a0003e3 	mov	w3, w0
    fdcc161c:	52800001 	mov	w1, #0x0                   	// #0
    fdcc1620:	52801fe0 	mov	w0, #0xff                  	// #255
    fdcc1624:	f2bfd004 	movk	x4, #0xfe80, lsl #16
    fdcc1628:	f2bfd005 	movk	x5, #0xfe80, lsl #16
    fdcc162c:	f2c00406 	movk	x6, #0x20, lsl #32
    fdcc1630:	7100047f 	cmp	w3, #0x1
    fdcc1634:	540000a8 	b.hi	0xfdcc1648  // b.pmore
    fdcc1638:	7100943f 	cmp	w1, #0x25
    fdcc163c:	54000068 	b.hi	0xfdcc1648  // b.pmore
    fdcc1640:	9ac124c2 	lsr	x2, x6, x1
    fdcc1644:	37000122 	tbnz	w2, #0, 0xfdcc1668
    fdcc1648:	b9400082 	ldr	w2, [x4]
    fdcc164c:	12106442 	and	w2, w2, #0xffff03ff
    fdcc1650:	2a012842 	orr	w2, w2, w1, lsl #10
    fdcc1654:	b9000082 	str	w2, [x4]
    fdcc1658:	b94000a2 	ldr	w2, [x5]
    fdcc165c:	d3505c42 	ubfx	x2, x2, #16, #8
    fdcc1660:	6b02001f 	cmp	w0, w2
    fdcc1664:	1a829000 	csel	w0, w0, w2, ls	// ls = plast
    fdcc1668:	11000421 	add	w1, w1, #0x1
    fdcc166c:	7100a03f 	cmp	w1, #0x28
    fdcc1670:	54fffe01 	b.ne	0xfdcc1630  // b.any
    fdcc1674:	d65f03c0 	ret
    fdcc1678:	d2806400 	mov	x0, #0x320                 	// #800
    fdcc167c:	f2bfc4a0 	movk	x0, #0xfe25, lsl #16
    fdcc1680:	b900001f 	str	wzr, [x0]
    fdcc1684:	d65f03c0 	ret
    fdcc1688:	d2806400 	mov	x0, #0x320                 	// #800
    fdcc168c:	52800021 	mov	w1, #0x1                   	// #1
    fdcc1690:	f2bfc4a0 	movk	x0, #0xfe25, lsl #16
    fdcc1694:	b9000001 	str	w1, [x0]
    fdcc1698:	d2806481 	mov	x1, #0x324                 	// #804
    fdcc169c:	f2bfc4a1 	movk	x1, #0xfe25, lsl #16
    fdcc16a0:	b9400020 	ldr	w0, [x1]
    fdcc16a4:	3607ffe0 	tbz	w0, #0, 0xfdcc16a0
    fdcc16a8:	d65f03c0 	ret
    fdcc16ac:	d0000024 	adrp	x4, 0xfdcc7000
    fdcc16b0:	91000084 	add	x4, x4, #0x0
    fdcc16b4:	a9bf7bfd 	stp	x29, x30, [sp, #-16]!
    fdcc16b8:	910003fd 	mov	x29, sp
    fdcc16bc:	b940d883 	ldr	w3, [x4, #216]
    fdcc16c0:	6b00007f 	cmp	w3, w0
    fdcc16c4:	540005e3 	b.cc	0xfdcc1780  // b.lo, b.ul, b.last
    fdcc16c8:	b9410483 	ldr	w3, [x4, #260]
    fdcc16cc:	b9407885 	ldr	w5, [x4, #120]
    fdcc16d0:	6b0000bf 	cmp	w5, w0
    fdcc16d4:	540005a3 	b.cc	0xfdcc1788  // b.lo, b.ul, b.last
    fdcc16d8:	b9410080 	ldr	w0, [x4, #256]
    fdcc16dc:	71001c5f 	cmp	w2, #0x7
    fdcc16e0:	54000741 	b.ne	0xfdcc17c8  // b.any
    fdcc16e4:	71018c7f 	cmp	w3, #0x63
    fdcc16e8:	54000549 	b.ls	0xfdcc1790  // b.plast
    fdcc16ec:	7106907f 	cmp	w3, #0x1a4
    fdcc16f0:	54000548 	b.hi	0xfdcc1798  // b.pmore
    fdcc16f4:	7104b07f 	cmp	w3, #0x12c
    fdcc16f8:	54000528 	b.hi	0xfdcc179c  // b.pmore
    fdcc16fc:	51019063 	sub	w3, w3, #0x64
    fdcc1700:	53027c63 	lsr	w3, w3, #2
    fdcc1704:	71018c1f 	cmp	w0, #0x63
    fdcc1708:	54000529 	b.ls	0xfdcc17ac  // b.plast
    fdcc170c:	7106901f 	cmp	w0, #0x1a4
    fdcc1710:	54000528 	b.hi	0xfdcc17b4  // b.pmore
    fdcc1714:	7104b01f 	cmp	w0, #0x12c
    fdcc1718:	54000508 	b.hi	0xfdcc17b8  // b.pmore
    fdcc171c:	51019000 	sub	w0, w0, #0x64
    fdcc1720:	53027c02 	lsr	w2, w0, #2
    fdcc1724:	97ffffd5 	bl	0xfdcc1678
    fdcc1728:	1143f820 	add	w0, w1, #0xfe, lsl #12
    fdcc172c:	11094400 	add	w0, w0, #0x251
    fdcc1730:	7100003f 	cmp	w1, #0x0
    fdcc1734:	d2801d05 	mov	x5, #0xe8                  	// #232
    fdcc1738:	d2801d81 	mov	x1, #0xec                  	// #236
    fdcc173c:	53144c00 	lsl	w0, w0, #12
    fdcc1740:	f2bfc4a5 	movk	x5, #0xfe25, lsl #16
    fdcc1744:	1103a004 	add	w4, w0, #0xe8
    fdcc1748:	1103b000 	add	w0, w0, #0xec
    fdcc174c:	9a851084 	csel	x4, x4, x5, ne	// ne = any
    fdcc1750:	f2bfc4a1 	movk	x1, #0xfe25, lsl #16
    fdcc1754:	9a811001 	csel	x1, x0, x1, ne	// ne = any
    fdcc1758:	b9400085 	ldr	w5, [x4]
    fdcc175c:	12103ca5 	and	w5, w5, #0xffff0000
    fdcc1760:	2a0300a3 	orr	w3, w5, w3
    fdcc1764:	b9000083 	str	w3, [x4]
    fdcc1768:	b9400020 	ldr	w0, [x1]
    fdcc176c:	12103c00 	and	w0, w0, #0xffff0000
    fdcc1770:	2a020002 	orr	w2, w0, w2
    fdcc1774:	b9000022 	str	w2, [x1]
    fdcc1778:	a8c17bfd 	ldp	x29, x30, [sp], #16
    fdcc177c:	17ffffc3 	b	0xfdcc1688
    fdcc1780:	b940f883 	ldr	w3, [x4, #248]
    fdcc1784:	17ffffd2 	b	0xfdcc16cc
    fdcc1788:	b940f480 	ldr	w0, [x4, #244]
    fdcc178c:	17ffffd4 	b	0xfdcc16dc
    fdcc1790:	52800c83 	mov	w3, #0x64                  	// #100
    fdcc1794:	17ffffda 	b	0xfdcc16fc
    fdcc1798:	52803483 	mov	w3, #0x1a4                 	// #420
    fdcc179c:	51037063 	sub	w3, w3, #0xdc
    fdcc17a0:	53027c63 	lsr	w3, w3, #2
    fdcc17a4:	321a0063 	orr	w3, w3, #0x40
    fdcc17a8:	17ffffd7 	b	0xfdcc1704
    fdcc17ac:	52800c80 	mov	w0, #0x64                  	// #100
    fdcc17b0:	17ffffdb 	b	0xfdcc171c
    fdcc17b4:	52803480 	mov	w0, #0x1a4                 	// #420
    fdcc17b8:	51037002 	sub	w2, w0, #0xdc
    fdcc17bc:	53027c42 	lsr	w2, w2, #2
    fdcc17c0:	321a0042 	orr	w2, w2, #0x40
    fdcc17c4:	17ffffd8 	b	0xfdcc1724
    fdcc17c8:	52800162 	mov	w2, #0xb                   	// #11
    fdcc17cc:	1b027c63 	mul	w3, w3, w2
    fdcc17d0:	710e0c7f 	cmp	w3, #0x383
    fdcc17d4:	54000289 	b.ls	0xfdcc1824  // b.plast
    fdcc17d8:	713b0c7f 	cmp	w3, #0xec3
    fdcc17dc:	54000288 	b.hi	0xfdcc182c  // b.pmore
    fdcc17e0:	528000c2 	mov	w2, #0x6                   	// #6
    fdcc17e4:	712a2c7f 	cmp	w3, #0xa8b
    fdcc17e8:	1ac20862 	udiv	w2, w3, w2
    fdcc17ec:	54000228 	b.hi	0xfdcc1830  // b.pmore
    fdcc17f0:	51025843 	sub	w3, w2, #0x96
    fdcc17f4:	528000c2 	mov	w2, #0x6                   	// #6
    fdcc17f8:	1ac20863 	udiv	w3, w3, w2
    fdcc17fc:	7102541f 	cmp	w0, #0x95
    fdcc1800:	54000229 	b.ls	0xfdcc1844  // b.plast
    fdcc1804:	7109d41f 	cmp	w0, #0x275
    fdcc1808:	54000228 	b.hi	0xfdcc184c  // b.pmore
    fdcc180c:	7107041f 	cmp	w0, #0x1c1
    fdcc1810:	54000208 	b.hi	0xfdcc1850  // b.pmore
    fdcc1814:	51025800 	sub	w0, w0, #0x96
    fdcc1818:	528000c2 	mov	w2, #0x6                   	// #6
    fdcc181c:	1ac20802 	udiv	w2, w0, w2
    fdcc1820:	17ffffc1 	b	0xfdcc1724
    fdcc1824:	528012c2 	mov	w2, #0x96                  	// #150
    fdcc1828:	17fffff2 	b	0xfdcc17f0
    fdcc182c:	52804ea2 	mov	w2, #0x275                 	// #629
    fdcc1830:	51052443 	sub	w3, w2, #0x149
    fdcc1834:	528000c2 	mov	w2, #0x6                   	// #6
    fdcc1838:	1ac20863 	udiv	w3, w3, w2
    fdcc183c:	321a0063 	orr	w3, w3, #0x40
    fdcc1840:	17ffffef 	b	0xfdcc17fc
    fdcc1844:	528012c0 	mov	w0, #0x96                  	// #150
    fdcc1848:	17fffff3 	b	0xfdcc1814
    fdcc184c:	52804ea0 	mov	w0, #0x275                 	// #629
    fdcc1850:	51052402 	sub	w2, w0, #0x149
    fdcc1854:	528000c0 	mov	w0, #0x6                   	// #6
    fdcc1858:	1ac00842 	udiv	w2, w2, w0
    fdcc185c:	17ffffd9 	b	0xfdcc17c0
    fdcc1860:	34000180 	cbz	w0, 0xfdcc1890
    fdcc1864:	7100a01f 	cmp	w0, #0x28
    fdcc1868:	54000169 	b.ls	0xfdcc1894  // b.plast
    fdcc186c:	7100c01f 	cmp	w0, #0x30
    fdcc1870:	54000169 	b.ls	0xfdcc189c  // b.plast
    fdcc1874:	7100f01f 	cmp	w0, #0x3c
    fdcc1878:	54000169 	b.ls	0xfdcc18a4  // b.plast
    fdcc187c:	7101401f 	cmp	w0, #0x50
    fdcc1880:	54000169 	b.ls	0xfdcc18ac  // b.plast
    fdcc1884:	7101e41f 	cmp	w0, #0x79
    fdcc1888:	1a9f27e0 	cset	w0, cc	// cc = lo, ul, last
    fdcc188c:	11000400 	add	w0, w0, #0x1
    fdcc1890:	d65f03c0 	ret
    fdcc1894:	528000c0 	mov	w0, #0x6                   	// #6
    fdcc1898:	17fffffe 	b	0xfdcc1890
    fdcc189c:	528000a0 	mov	w0, #0x5                   	// #5
    fdcc18a0:	17fffffc 	b	0xfdcc1890
    fdcc18a4:	52800080 	mov	w0, #0x4                   	// #4
    fdcc18a8:	17fffffa 	b	0xfdcc1890
    fdcc18ac:	52800060 	mov	w0, #0x3                   	// #3
    fdcc18b0:	17fffff8 	b	0xfdcc1890
    fdcc18b4:	b9400c01 	ldr	w1, [x0, #12]
    fdcc18b8:	52800103 	mov	w3, #0x8                   	// #8
    fdcc18bc:	1ac12063 	lsl	w3, w3, w1
    fdcc18c0:	d2bfc4a1 	mov	x1, #0xfe250000            	// #4263837696
    fdcc18c4:	53037c64 	lsr	w4, w3, #3
    fdcc18c8:	b9400021 	ldr	w1, [x1]
    fdcc18cc:	d3504c21 	ubfx	x1, x1, #16, #4
    fdcc18d0:	531f7822 	lsl	w2, w1, #1
    fdcc18d4:	39414001 	ldrb	w1, [x0, #80]
    fdcc18d8:	1b027c84 	mul	w4, w4, w2
    fdcc18dc:	7100409f 	cmp	w4, #0x10
    fdcc18e0:	54000521 	b.ne	0xfdcc1984  // b.any
    fdcc18e4:	121b7421 	and	w1, w1, #0xffffffe7
    fdcc18e8:	39014001 	strb	w1, [x0, #80]
    fdcc18ec:	1b027c61 	mul	w1, w3, w2
    fdcc18f0:	71021c3f 	cmp	w1, #0x87
    fdcc18f4:	540005e9 	b.ls	0xfdcc19b0  // b.plast
    fdcc18f8:	53027c41 	lsr	w1, w2, #2
    fdcc18fc:	39411002 	ldrb	w2, [x0, #68]
    fdcc1900:	33000c22 	bfxil	w2, w1, #0, #4
    fdcc1904:	39011002 	strb	w2, [x0, #68]
    fdcc1908:	b9407002 	ldr	w2, [x0, #112]
    fdcc190c:	51001c42 	sub	w2, w2, #0x7
    fdcc1910:	7100045f 	cmp	w2, #0x1
    fdcc1914:	54000168 	b.hi	0xfdcc1940  // b.pmore
    fdcc1918:	7100407f 	cmp	w3, #0x10
    fdcc191c:	39414003 	ldrb	w3, [x0, #80]
    fdcc1920:	1a9f07e2 	cset	w2, ne	// ne = any
    fdcc1924:	0b010421 	add	w1, w1, w1, lsl #1
    fdcc1928:	11000442 	add	w2, w2, #0x1
    fdcc192c:	331b0443 	bfi	w3, w2, #5, #2
    fdcc1930:	39411402 	ldrb	w2, [x0, #69]
    fdcc1934:	39014003 	strb	w3, [x0, #80]
    fdcc1938:	33001422 	bfxil	w2, w1, #0, #6
    fdcc193c:	39011402 	strb	w2, [x0, #69]
    fdcc1940:	d2800201 	mov	x1, #0x10                  	// #16
    fdcc1944:	b9403c02 	ldr	w2, [x0, #60]
    fdcc1948:	f2bfc201 	movk	x1, #0xfe10, lsl #16
    fdcc194c:	b9000022 	str	w2, [x1]
    fdcc1950:	b9404002 	ldr	w2, [x0, #64]
    fdcc1954:	b9000422 	str	w2, [x1, #4]
    fdcc1958:	b9404402 	ldr	w2, [x0, #68]
    fdcc195c:	b9000822 	str	w2, [x1, #8]
    fdcc1960:	b9404c02 	ldr	w2, [x0, #76]
    fdcc1964:	b9001022 	str	w2, [x1, #16]
    fdcc1968:	b9405002 	ldr	w2, [x0, #80]
    fdcc196c:	b9001422 	str	w2, [x1, #20]
    fdcc1970:	b9404801 	ldr	w1, [x0, #72]
    fdcc1974:	d2800380 	mov	x0, #0x1c                  	// #28
    fdcc1978:	f2bfc200 	movk	x0, #0xfe10, lsl #16
    fdcc197c:	b9000001 	str	w1, [x0]
    fdcc1980:	d65f03c0 	ret
    fdcc1984:	7100809f 	cmp	w4, #0x20
    fdcc1988:	54000081 	b.ne	0xfdcc1998  // b.any
    fdcc198c:	52800024 	mov	w4, #0x1                   	// #1
    fdcc1990:	331d0481 	bfi	w1, w4, #3, #2
    fdcc1994:	17ffffd5 	b	0xfdcc18e8
    fdcc1998:	7101009f 	cmp	w4, #0x40
    fdcc199c:	54000061 	b.ne	0xfdcc19a8  // b.any
    fdcc19a0:	52800044 	mov	w4, #0x2                   	// #2
    fdcc19a4:	17fffffb 	b	0xfdcc1990
    fdcc19a8:	321d0421 	orr	w1, w1, #0x18
    fdcc19ac:	17ffffcf 	b	0xfdcc18e8
    fdcc19b0:	53037c24 	lsr	w4, w1, #3
    fdcc19b4:	52800201 	mov	w1, #0x10                  	// #16
    fdcc19b8:	1ac40821 	udiv	w1, w1, w4
    fdcc19bc:	1b027c21 	mul	w1, w1, w2
    fdcc19c0:	d3421421 	ubfx	x1, x1, #2, #4
    fdcc19c4:	17ffffce 	b	0xfdcc18fc
    fdcc19c8:	b9407003 	ldr	w3, [x0, #112]
    fdcc19cc:	51001c63 	sub	w3, w3, #0x7
    fdcc19d0:	7100047f 	cmp	w3, #0x1
    fdcc19d4:	54000888 	b.hi	0xfdcc1ae4  // b.pmore
    fdcc19d8:	b9406c07 	ldr	w7, [x0, #108]
    fdcc19dc:	52908feb 	mov	w11, #0x847f                	// #33919
    fdcc19e0:	72a003cb 	movk	w11, #0x1e, lsl #16
    fdcc19e4:	5281d4c4 	mov	w4, #0xea6                 	// #3750
    fdcc19e8:	5280ea6c 	mov	w12, #0x753                 	// #1875
    fdcc19ec:	529c4a23 	mov	w3, #0xe251                	// #57937
    fdcc19f0:	5290900a 	mov	w10, #0x8480                	// #33920
    fdcc19f4:	72a001e3 	movk	w3, #0xf, lsl #16
    fdcc19f8:	1b042ce4 	madd	w4, w7, w4, w11
    fdcc19fc:	72a003ca 	movk	w10, #0x1e, lsl #16
    fdcc1a00:	1b0c2ce7 	madd	w7, w7, w12, w11
    fdcc1a04:	0b030026 	add	w6, w1, w3
    fdcc1a08:	7100003f 	cmp	w1, #0x0
    fdcc1a0c:	d2800408 	mov	x8, #0x20                  	// #32
    fdcc1a10:	53144cc6 	lsl	w6, w6, #12
    fdcc1a14:	f2bfc4a8 	movk	x8, #0xfe25, lsl #16
    fdcc1a18:	1aca0884 	udiv	w4, w4, w10
    fdcc1a1c:	110080c5 	add	w5, w6, #0x20
    fdcc1a20:	9a8810a5 	csel	x5, x5, x8, ne	// ne = any
    fdcc1a24:	1aca08e7 	udiv	w7, w7, w10
    fdcc1a28:	529ffdea 	mov	w10, #0xffef                	// #65519
    fdcc1a2c:	51000484 	sub	w4, w4, #0x1
    fdcc1a30:	b94000a9 	ldr	w9, [x5]
    fdcc1a34:	510004e7 	sub	w7, w7, #0x1
    fdcc1a38:	53180884 	ubfiz	w4, w4, #8, #3
    fdcc1a3c:	531f04e7 	ubfiz	w7, w7, #1, #2
    fdcc1a40:	2a070084 	orr	w4, w4, w7
    fdcc1a44:	1280fec7 	mov	w7, #0xfffff809            	// #-2039
    fdcc1a48:	0a070127 	and	w7, w9, w7
    fdcc1a4c:	2a070084 	orr	w4, w4, w7
    fdcc1a50:	b90000a4 	str	w4, [x5]
    fdcc1a54:	d2801c07 	mov	x7, #0xe0                  	// #224
    fdcc1a58:	b94000a4 	ldr	w4, [x5]
    fdcc1a5c:	f2bfc4a7 	movk	x7, #0xfe25, lsl #16
    fdcc1a60:	32140084 	orr	w4, w4, #0x1000
    fdcc1a64:	b90000a4 	str	w4, [x5]
    fdcc1a68:	110380c4 	add	w4, w6, #0xe0
    fdcc1a6c:	110090c6 	add	w6, w6, #0x24
    fdcc1a70:	9a871084 	csel	x4, x4, x7, ne	// ne = any
    fdcc1a74:	b9400089 	ldr	w9, [x4]
    fdcc1a78:	b9400087 	ldr	w7, [x4]
    fdcc1a7c:	0a0a0129 	and	w9, w9, w10
    fdcc1a80:	12103ce7 	and	w7, w7, #0xffff0000
    fdcc1a84:	2a0900e7 	orr	w7, w7, w9
    fdcc1a88:	b9000087 	str	w7, [x4]
    fdcc1a8c:	b9406c04 	ldr	w4, [x0, #108]
    fdcc1a90:	528014e0 	mov	w0, #0xa7                  	// #167
    fdcc1a94:	1b007c84 	mul	w4, w4, w0
    fdcc1a98:	d2800480 	mov	x0, #0x24                  	// #36
    fdcc1a9c:	f2bfc4a0 	movk	x0, #0xfe25, lsl #16
    fdcc1aa0:	9a8010c6 	csel	x6, x6, x0, ne	// ne = any
    fdcc1aa4:	7100005f 	cmp	w2, #0x0
    fdcc1aa8:	53017c84 	lsr	w4, w4, #1
    fdcc1aac:	b90000c4 	str	w4, [x6]
    fdcc1ab0:	b94000a0 	ldr	w0, [x5]
    fdcc1ab4:	32000000 	orr	w0, w0, #0x1
    fdcc1ab8:	b90000a0 	str	w0, [x5]
    fdcc1abc:	0b030040 	add	w0, w2, w3
    fdcc1ac0:	53144c00 	lsl	w0, w0, #12
    fdcc1ac4:	11008000 	add	w0, w0, #0x20
    fdcc1ac8:	9a881000 	csel	x0, x0, x8, ne	// ne = any
    fdcc1acc:	b9400001 	ldr	w1, [x0]
    fdcc1ad0:	32130021 	orr	w1, w1, #0x2000
    fdcc1ad4:	b9000001 	str	w1, [x0]
    fdcc1ad8:	b94000a0 	ldr	w0, [x5]
    fdcc1adc:	32130000 	orr	w0, w0, #0x2000
    fdcc1ae0:	b90000a0 	str	w0, [x5]
    fdcc1ae4:	d65f03c0 	ret
    fdcc1ae8:	d2800703 	mov	x3, #0x38                  	// #56
    fdcc1aec:	a9bf7bfd 	stp	x29, x30, [sp, #-16]!
    fdcc1af0:	f2bfd003 	movk	x3, #0xfe80, lsl #16
    fdcc1af4:	910003fd 	mov	x29, sp
    fdcc1af8:	b9400060 	ldr	w0, [x3]
    fdcc1afc:	121f7800 	and	w0, w0, #0xfffffffe
    fdcc1b00:	b9000060 	str	w0, [x3]
    fdcc1b04:	52800020 	mov	w0, #0x1                   	// #1
    fdcc1b08:	97fffd3e 	bl	0xfdcc1000
    fdcc1b0c:	b9400060 	ldr	w0, [x3]
    fdcc1b10:	32000000 	orr	w0, w0, #0x1
    fdcc1b14:	b9000060 	str	w0, [x3]
    fdcc1b18:	52800020 	mov	w0, #0x1                   	// #1
    fdcc1b1c:	97fffd39 	bl	0xfdcc1000
    fdcc1b20:	b9400060 	ldr	w0, [x3]
    fdcc1b24:	121f7800 	and	w0, w0, #0xfffffffe
    fdcc1b28:	b9000060 	str	w0, [x3]
    fdcc1b2c:	a8c17bfd 	ldp	x29, x30, [sp], #16
    fdcc1b30:	d65f03c0 	ret
    fdcc1b34:	121e7443 	and	w3, w2, #0xfffffffc
    fdcc1b38:	52802085 	mov	w5, #0x104                 	// #260
    fdcc1b3c:	72bfd005 	movk	w5, #0xfe80, lsl #16
    fdcc1b40:	0b050063 	add	w3, w3, w5
    fdcc1b44:	2a2203e4 	mvn	w4, w2
    fdcc1b48:	b9400065 	ldr	w5, [x3]
    fdcc1b4c:	531d0484 	ubfiz	w4, w4, #3, #2
    fdcc1b50:	34000060 	cbz	w0, 0xfdcc1b5c
    fdcc1b54:	1ac424a5 	lsr	w5, w5, w4
    fdcc1b58:	0b250021 	add	w1, w1, w5, uxtb
    fdcc1b5c:	b9400065 	ldr	w5, [x3]
    fdcc1b60:	12001c21 	and	w1, w1, #0xff
    fdcc1b64:	52801fe0 	mov	w0, #0xff                  	// #255
    fdcc1b68:	1ac42000 	lsl	w0, w0, w4
    fdcc1b6c:	0a2000a0 	bic	w0, w5, w0
    fdcc1b70:	1ac42024 	lsl	w4, w1, w4
    fdcc1b74:	2a040000 	orr	w0, w0, w4
    fdcc1b78:	b9000060 	str	w0, [x3]
    fdcc1b7c:	d0000020 	adrp	x0, 0xfdcc7000
    fdcc1b80:	395bb800 	ldrb	w0, [x0, #1774]
    fdcc1b84:	6b02001f 	cmp	w0, w2
    fdcc1b88:	540000e1 	b.ne	0xfdcc1ba4  // b.any
    fdcc1b8c:	d2802382 	mov	x2, #0x11c                 	// #284
    fdcc1b90:	f2bfd002 	movk	x2, #0xfe80, lsl #16
    fdcc1b94:	b9400040 	ldr	w0, [x2]
    fdcc1b98:	12185c00 	and	w0, w0, #0xffffff00
    fdcc1b9c:	2a010001 	orr	w1, w0, w1
    fdcc1ba0:	b9000041 	str	w1, [x2]
    fdcc1ba4:	d65f03c0 	ret
    fdcc1ba8:	a9bf7bfd 	stp	x29, x30, [sp, #-16]!
    fdcc1bac:	51001c8a 	sub	w10, w4, #0x7
    fdcc1bb0:	d0000026 	adrp	x6, 0xfdcc7000
    fdcc1bb4:	910003fd 	mov	x29, sp
    fdcc1bb8:	2a0003e8 	mov	w8, w0
    fdcc1bbc:	2a0103eb 	mov	w11, w1
    fdcc1bc0:	2a0203e9 	mov	w9, w2
    fdcc1bc4:	7100055f 	cmp	w10, #0x1
    fdcc1bc8:	910000c6 	add	x6, x6, #0x0
    fdcc1bcc:	540005a8 	b.hi	0xfdcc1c80  // b.pmore
    fdcc1bd0:	b946f4c0 	ldr	w0, [x6, #1780]
    fdcc1bd4:	35000560 	cbnz	w0, 0xfdcc1c80
    fdcc1bd8:	2a0303e7 	mov	w7, w3
    fdcc1bdc:	340003c3 	cbz	w3, 0xfdcc1c54
    fdcc1be0:	528001aa 	mov	w10, #0xd                   	// #13
    fdcc1be4:	911bf0cc 	add	x12, x6, #0x6fc
    fdcc1be8:	d280000b 	mov	x11, #0x0                   	// #0
    fdcc1bec:	386b6982 	ldrb	w2, [x12, x11]
    fdcc1bf0:	2a0903e1 	mov	w1, w9
    fdcc1bf4:	2a0803e0 	mov	w0, w8
    fdcc1bf8:	97ffffcf 	bl	0xfdcc1b34
    fdcc1bfc:	9100056b 	add	x11, x11, #0x1
    fdcc1c00:	f100317f 	cmp	x11, #0xc
    fdcc1c04:	54ffff41 	b.ne	0xfdcc1bec  // b.any
    fdcc1c08:	911ba0c6 	add	x6, x6, #0x6e8
    fdcc1c0c:	528000c3 	mov	w3, #0x6                   	// #6
    fdcc1c10:	9ba318e6 	umaddl	x6, w7, w3, x6
    fdcc1c14:	d2800007 	mov	x7, #0x0                   	// #0
    fdcc1c18:	386768c2 	ldrb	w2, [x6, x7]
    fdcc1c1c:	2a0903e1 	mov	w1, w9
    fdcc1c20:	2a0803e0 	mov	w0, w8
    fdcc1c24:	97ffffc4 	bl	0xfdcc1b34
    fdcc1c28:	910004e7 	add	x7, x7, #0x1
    fdcc1c2c:	f10018ff 	cmp	x7, #0x6
    fdcc1c30:	54ffff41 	b.ne	0xfdcc1c18  // b.any
    fdcc1c34:	d2800401 	mov	x1, #0x20                  	// #32
    fdcc1c38:	f2bfd001 	movk	x1, #0xfe80, lsl #16
    fdcc1c3c:	b9400020 	ldr	w0, [x1]
    fdcc1c40:	12086c00 	and	w0, w0, #0xff0fffff
    fdcc1c44:	2a0a500a 	orr	w10, w0, w10, lsl #20
    fdcc1c48:	b900002a 	str	w10, [x1]
    fdcc1c4c:	a8c17bfd 	ldp	x29, x30, [sp], #16
    fdcc1c50:	17ffffa6 	b	0xfdcc1ae8
    fdcc1c54:	911be0cc 	add	x12, x6, #0x6f8
    fdcc1c58:	d280000a 	mov	x10, #0x0                   	// #0
    fdcc1c5c:	386a6982 	ldrb	w2, [x12, x10]
    fdcc1c60:	2a0b03e1 	mov	w1, w11
    fdcc1c64:	2a0803e0 	mov	w0, w8
    fdcc1c68:	97ffffb3 	bl	0xfdcc1b34
    fdcc1c6c:	9100054a 	add	x10, x10, #0x1
    fdcc1c70:	f100115f 	cmp	x10, #0x4
    fdcc1c74:	54ffff41 	b.ne	0xfdcc1c5c  // b.any
    fdcc1c78:	528001ca 	mov	w10, #0xe                   	// #14
    fdcc1c7c:	17ffffda 	b	0xfdcc1be4
    fdcc1c80:	911be0c6 	add	x6, x6, #0x6f8
    fdcc1c84:	52800007 	mov	w7, #0x0                   	// #0
    fdcc1c88:	394000c0 	ldrb	w0, [x6]
    fdcc1c8c:	6b07001f 	cmp	w0, w7
    fdcc1c90:	54000180 	b.eq	0xfdcc1cc0  // b.none
    fdcc1c94:	394004c0 	ldrb	w0, [x6, #1]
    fdcc1c98:	6b07001f 	cmp	w0, w7
    fdcc1c9c:	54000120 	b.eq	0xfdcc1cc0  // b.none
    fdcc1ca0:	7100055f 	cmp	w10, #0x1
    fdcc1ca4:	54000208 	b.hi	0xfdcc1ce4  // b.pmore
    fdcc1ca8:	394008c0 	ldrb	w0, [x6, #2]
    fdcc1cac:	6b07001f 	cmp	w0, w7
    fdcc1cb0:	54000080 	b.eq	0xfdcc1cc0  // b.none
    fdcc1cb4:	39400cc0 	ldrb	w0, [x6, #3]
    fdcc1cb8:	6b07001f 	cmp	w0, w7
    fdcc1cbc:	54000141 	b.ne	0xfdcc1ce4  // b.any
    fdcc1cc0:	2a0b03e1 	mov	w1, w11
    fdcc1cc4:	2a0703e2 	mov	w2, w7
    fdcc1cc8:	2a0803e0 	mov	w0, w8
    fdcc1ccc:	97ffff9a 	bl	0xfdcc1b34
    fdcc1cd0:	110004e7 	add	w7, w7, #0x1
    fdcc1cd4:	710080ff 	cmp	w7, #0x20
    fdcc1cd8:	54fffd81 	b.ne	0xfdcc1c88  // b.any
    fdcc1cdc:	a8c17bfd 	ldp	x29, x30, [sp], #16
    fdcc1ce0:	d65f03c0 	ret
    fdcc1ce4:	2a0903e1 	mov	w1, w9
    fdcc1ce8:	17fffff7 	b	0xfdcc1cc4
    fdcc1cec:	5280708b 	mov	w11, #0x384                 	// #900
    fdcc1cf0:	5280720c 	mov	w12, #0x390                 	// #912
    fdcc1cf4:	5280768e 	mov	w14, #0x3b4                 	// #948
    fdcc1cf8:	5280780f 	mov	w15, #0x3c0                 	// #960
    fdcc1cfc:	92401c42 	and	x2, x2, #0xff
    fdcc1d00:	9100400d 	add	x13, x0, #0x10
    fdcc1d04:	91004030 	add	x16, x1, #0x10
    fdcc1d08:	d2800005 	mov	x5, #0x0                   	// #0
    fdcc1d0c:	52803009 	mov	w9, #0x180                 	// #384
    fdcc1d10:	d280064a 	mov	x10, #0x32                  	// #50
    fdcc1d14:	72bfd00b 	movk	w11, #0xfe80, lsl #16
    fdcc1d18:	128000e8 	mov	w8, #0xfffffff8            	// #-8
    fdcc1d1c:	72bfd00c 	movk	w12, #0xfe80, lsl #16
    fdcc1d20:	72bfd00e 	movk	w14, #0xfe80, lsl #16
    fdcc1d24:	72bfd00f 	movk	w15, #0xfe80, lsl #16
    fdcc1d28:	9ac52443 	lsr	x3, x2, x5
    fdcc1d2c:	36000403 	tbz	w3, #0, 0xfdcc1dac
    fdcc1d30:	9b0a7ca4 	mul	x4, x5, x10
    fdcc1d34:	d2800006 	mov	x6, #0x0                   	// #0
    fdcc1d38:	1b057d31 	mul	w17, w9, w5
    fdcc1d3c:	91004884 	add	x4, x4, #0x12
    fdcc1d40:	121e00c3 	and	w3, w6, #0x4
    fdcc1d44:	1b062112 	madd	w18, w8, w6, w8
    fdcc1d48:	0b110063 	add	w3, w3, w17
    fdcc1d4c:	910004c6 	add	x6, x6, #0x1
    fdcc1d50:	0b0b0067 	add	w7, w3, w11
    fdcc1d54:	f10020df 	cmp	x6, #0x8
    fdcc1d58:	b94000e7 	ldr	w7, [x7]
    fdcc1d5c:	1ad224e7 	lsr	w7, w7, w18
    fdcc1d60:	120018e7 	and	w7, w7, #0x7f
    fdcc1d64:	78246807 	strh	w7, [x0, x4]
    fdcc1d68:	0b0c0067 	add	w7, w3, w12
    fdcc1d6c:	b94000e7 	ldr	w7, [x7]
    fdcc1d70:	1ad224e7 	lsr	w7, w7, w18
    fdcc1d74:	120018e7 	and	w7, w7, #0x7f
    fdcc1d78:	782469a7 	strh	w7, [x13, x4]
    fdcc1d7c:	0b0e0067 	add	w7, w3, w14
    fdcc1d80:	0b0f0063 	add	w3, w3, w15
    fdcc1d84:	b94000e7 	ldr	w7, [x7]
    fdcc1d88:	b9400063 	ldr	w3, [x3]
    fdcc1d8c:	1ad224e7 	lsr	w7, w7, w18
    fdcc1d90:	12001ce7 	and	w7, w7, #0xff
    fdcc1d94:	78246827 	strh	w7, [x1, x4]
    fdcc1d98:	1ad22463 	lsr	w3, w3, w18
    fdcc1d9c:	12001c63 	and	w3, w3, #0xff
    fdcc1da0:	78246a03 	strh	w3, [x16, x4]
    fdcc1da4:	91000884 	add	x4, x4, #0x2
    fdcc1da8:	54fffcc1 	b.ne	0xfdcc1d40  // b.any
    fdcc1dac:	910004a5 	add	x5, x5, #0x1
    fdcc1db0:	f10014bf 	cmp	x5, #0x5
    fdcc1db4:	54fffba1 	b.ne	0xfdcc1d28  // b.any
    fdcc1db8:	d65f03c0 	ret
    fdcc1dbc:	a9bb7bfd 	stp	x29, x30, [sp, #-80]!
    fdcc1dc0:	b0811d2a 	adrp	x10, 0x66000
    fdcc1dc4:	b0811d2b 	adrp	x11, 0x66000
    fdcc1dc8:	910003fd 	mov	x29, sp
    fdcc1dcc:	12001c42 	and	w2, w2, #0xff
    fdcc1dd0:	9117794a 	add	x10, x10, #0x5de
    fdcc1dd4:	9117996b 	add	x11, x11, #0x5e6
    fdcc1dd8:	92401c63 	and	x3, x3, #0xff
    fdcc1ddc:	7900001f 	strh	wzr, [x0]
    fdcc1de0:	d2800008 	mov	x8, #0x0                   	// #0
    fdcc1de4:	d2800007 	mov	x7, #0x0                   	// #0
    fdcc1de8:	5280600d 	mov	w13, #0x300                 	// #768
    fdcc1dec:	5280300e 	mov	w14, #0x180                 	// #384
    fdcc1df0:	d280064f 	mov	x15, #0x32                  	// #50
    fdcc1df4:	52bfd00c 	mov	w12, #0xfe800000            	// #-25165824
    fdcc1df8:	52be0010 	mov	w16, #0xf0000000            	// #-268435456
    fdcc1dfc:	52a02011 	mov	w17, #0x1000000             	// #16777216
    fdcc1e00:	52a30012 	mov	w18, #0x18000000            	// #402653184
    fdcc1e04:	52a3201e 	mov	w30, #0x19000000            	// #419430400
    fdcc1e08:	7900003f 	strh	wzr, [x1]
    fdcc1e0c:	a90153f3 	stp	x19, x20, [sp, #16]
    fdcc1e10:	52a12013 	mov	w19, #0x9000000             	// #150994944
    fdcc1e14:	a9025bf5 	stp	x21, x22, [sp, #32]
    fdcc1e18:	a90363f7 	stp	x23, x24, [sp, #48]
    fdcc1e1c:	a9046bf9 	stp	x25, x26, [sp, #64]
    fdcc1e20:	6b27005f 	cmp	w2, w7, uxtb
    fdcc1e24:	540000e8 	b.hi	0xfdcc1e40  // b.pmore
    fdcc1e28:	a94153f3 	ldp	x19, x20, [sp, #16]
    fdcc1e2c:	a9425bf5 	ldp	x21, x22, [sp, #32]
    fdcc1e30:	a94363f7 	ldp	x23, x24, [sp, #48]
    fdcc1e34:	a9446bf9 	ldp	x25, x26, [sp, #64]
    fdcc1e38:	a8c57bfd 	ldp	x29, x30, [sp], #80
    fdcc1e3c:	d65f03c0 	ret
    fdcc1e40:	f10fa11f 	cmp	x8, #0x3e8
    fdcc1e44:	54ffff20 	b.eq	0xfdcc1e28  // b.none
    fdcc1e48:	78677954 	ldrh	w20, [x10, x7, lsl #1]
    fdcc1e4c:	91004909 	add	x9, x8, #0x12
    fdcc1e50:	78677975 	ldrh	w21, [x11, x7, lsl #1]
    fdcc1e54:	91000916 	add	x22, x8, #0x2
    fdcc1e58:	d2800006 	mov	x6, #0x0                   	// #0
    fdcc1e5c:	12001cc5 	and	w5, w6, #0xff
    fdcc1e60:	9ac62464 	lsr	x4, x3, x6
    fdcc1e64:	360005a4 	tbz	w4, #0, 0xfdcc1f18
    fdcc1e68:	d34140a4 	ubfx	x4, x5, #1, #16
    fdcc1e6c:	924000a5 	and	x5, x5, #0x1
    fdcc1e70:	9b0f58d9 	madd	x25, x6, x15, x22
    fdcc1e74:	52a20017 	mov	w23, #0x10000000            	// #268435456
    fdcc1e78:	1b0e7ca5 	mul	w5, w5, w14
    fdcc1e7c:	1b0415a4 	madd	w4, w13, w4, w5
    fdcc1e80:	12003c84 	and	w4, w4, #0xffff
    fdcc1e84:	0b140085 	add	w5, w4, w20
    fdcc1e88:	0b150084 	add	w4, w4, w21
    fdcc1e8c:	0b252185 	add	w5, w12, w5, uxth
    fdcc1e90:	0b242184 	add	w4, w12, w4, uxth
    fdcc1e94:	b94000b8 	ldr	w24, [x5]
    fdcc1e98:	0b1002fa 	add	w26, w23, w16
    fdcc1e9c:	12036b18 	and	w24, w24, #0xe0ffffff
    fdcc1ea0:	2a170318 	orr	w24, w24, w23
    fdcc1ea4:	b90000b8 	str	w24, [x5]
    fdcc1ea8:	0b1102f7 	add	w23, w23, w17
    fdcc1eac:	b9400098 	ldr	w24, [x4]
    fdcc1eb0:	6b1202ff 	cmp	w23, w18
    fdcc1eb4:	12001b18 	and	w24, w24, #0x7f
    fdcc1eb8:	78396818 	strh	w24, [x0, x25]
    fdcc1ebc:	b94000b8 	ldr	w24, [x5]
    fdcc1ec0:	12036b18 	and	w24, w24, #0xe0ffffff
    fdcc1ec4:	2a1a0318 	orr	w24, w24, w26
    fdcc1ec8:	b90000b8 	str	w24, [x5]
    fdcc1ecc:	b9400098 	ldr	w24, [x4]
    fdcc1ed0:	12001f18 	and	w24, w24, #0xff
    fdcc1ed4:	78396838 	strh	w24, [x1, x25]
    fdcc1ed8:	91000b39 	add	x25, x25, #0x2
    fdcc1edc:	54fffdc1 	b.ne	0xfdcc1e94  // b.any
    fdcc1ee0:	b94000b7 	ldr	w23, [x5]
    fdcc1ee4:	12036af7 	and	w23, w23, #0xe0ffffff
    fdcc1ee8:	2a1e02f7 	orr	w23, w23, w30
    fdcc1eec:	b90000b7 	str	w23, [x5]
    fdcc1ef0:	b9400097 	ldr	w23, [x4]
    fdcc1ef4:	12001af7 	and	w23, w23, #0x7f
    fdcc1ef8:	78296817 	strh	w23, [x0, x9]
    fdcc1efc:	b94000b7 	ldr	w23, [x5]
    fdcc1f00:	12036af7 	and	w23, w23, #0xe0ffffff
    fdcc1f04:	2a1302f7 	orr	w23, w23, w19
    fdcc1f08:	b90000b7 	str	w23, [x5]
    fdcc1f0c:	b9400084 	ldr	w4, [x4]
    fdcc1f10:	12001c84 	and	w4, w4, #0xff
    fdcc1f14:	78296824 	strh	w4, [x1, x9]
    fdcc1f18:	910004c6 	add	x6, x6, #0x1
    fdcc1f1c:	9100c929 	add	x9, x9, #0x32
    fdcc1f20:	f10014df 	cmp	x6, #0x5
    fdcc1f24:	54fff9c1 	b.ne	0xfdcc1e5c  // b.any
    fdcc1f28:	910004e7 	add	x7, x7, #0x1
    fdcc1f2c:	9103e908 	add	x8, x8, #0xfa
    fdcc1f30:	17ffffbc 	b	0xfdcc1e20
    fdcc1f34:	d2806200 	mov	x0, #0x310                 	// #784
    fdcc1f38:	f2bfc4a0 	movk	x0, #0xfe25, lsl #16
    fdcc1f3c:	aa0003e1 	mov	x1, x0
    fdcc1f40:	b9400002 	ldr	w2, [x0]
    fdcc1f44:	3727ffe2 	tbnz	w2, #4, 0xfdcc1f40
    fdcc1f48:	d2806180 	mov	x0, #0x30c                 	// #780
    fdcc1f4c:	52800202 	mov	w2, #0x10                  	// #16
    fdcc1f50:	f2bfc4a0 	movk	x0, #0xfe25, lsl #16
    fdcc1f54:	b9000002 	str	w2, [x0]
    fdcc1f58:	b9400020 	ldr	w0, [x1]
    fdcc1f5c:	3727ffe0 	tbnz	w0, #4, 0xfdcc1f58
    fdcc1f60:	d65f03c0 	ret
    fdcc1f64:	d2800601 	mov	x1, #0x30                  	// #48
    fdcc1f68:	f2bfc4a1 	movk	x1, #0xfe25, lsl #16
    fdcc1f6c:	340001e0 	cbz	w0, 0xfdcc1fa8
    fdcc1f70:	b9400020 	ldr	w0, [x1]
    fdcc1f74:	321b0000 	orr	w0, w0, #0x20
    fdcc1f78:	b9000020 	str	w0, [x1]
    fdcc1f7c:	d2800081 	mov	x1, #0x4                   	// #4
    fdcc1f80:	f2bfc4a1 	movk	x1, #0xfe25, lsl #16
    fdcc1f84:	b9400020 	ldr	w0, [x1]
    fdcc1f88:	121c0400 	and	w0, w0, #0x30
    fdcc1f8c:	7100801f 	cmp	w0, #0x20
    fdcc1f90:	54ffffa1 	b.ne	0xfdcc1f84  // b.any
    fdcc1f94:	b9400020 	ldr	w0, [x1]
    fdcc1f98:	12000800 	and	w0, w0, #0x7
    fdcc1f9c:	71000c1f 	cmp	w0, #0x3
    fdcc1fa0:	54ffff21 	b.ne	0xfdcc1f84  // b.any
    fdcc1fa4:	d65f03c0 	ret
    fdcc1fa8:	b9400020 	ldr	w0, [x1]
    fdcc1fac:	121a7800 	and	w0, w0, #0xffffffdf
    fdcc1fb0:	b9000020 	str	w0, [x1]
    fdcc1fb4:	d2800081 	mov	x1, #0x4                   	// #4
    fdcc1fb8:	f2bfc4a1 	movk	x1, #0xfe25, lsl #16
    fdcc1fbc:	b9400020 	ldr	w0, [x1]
    fdcc1fc0:	12000800 	and	w0, w0, #0x7
    fdcc1fc4:	71000c1f 	cmp	w0, #0x3
    fdcc1fc8:	54fffee1 	b.ne	0xfdcc1fa4  // b.any
    fdcc1fcc:	17fffffc 	b	0xfdcc1fbc
    fdcc1fd0:	d0000023 	adrp	x3, 0xfdcc7000
    fdcc1fd4:	91000063 	add	x3, x3, #0x0
    fdcc1fd8:	911c2064 	add	x4, x3, #0x708
    fdcc1fdc:	2a0003e5 	mov	w5, w0
    fdcc1fe0:	d2802d02 	mov	x2, #0x168                 	// #360
    fdcc1fe4:	9b0210a2 	madd	x2, x5, x2, x4
    fdcc1fe8:	b9406c24 	ldr	w4, [x1, #108]
    fdcc1fec:	b9000444 	str	w4, [x2, #4]
    fdcc1ff0:	b9407024 	ldr	w4, [x1, #112]
    fdcc1ff4:	51001c88 	sub	w8, w4, #0x7
    fdcc1ff8:	7100051f 	cmp	w8, #0x1
    fdcc1ffc:	54000168 	b.hi	0xfdcc2028  // b.pmore
    fdcc2000:	52800026 	mov	w6, #0x1                   	// #1
    fdcc2004:	2906985f 	stp	wzr, w6, [x2, #52]
    fdcc2008:	d2806082 	mov	x2, #0x304                 	// #772
    fdcc200c:	f2bfd002 	movk	x2, #0xfe80, lsl #16
    fdcc2010:	b9400046 	ldr	w6, [x2]
    fdcc2014:	d2802d02 	mov	x2, #0x168                 	// #360
    fdcc2018:	9b020ca2 	madd	x2, x5, x2, x3
    fdcc201c:	d34830c6 	ubfx	x6, x6, #8, #5
    fdcc2020:	b9073846 	str	w6, [x2, #1848]
    fdcc2024:	14000009 	b	0xfdcc2048
    fdcc2028:	294e1867 	ldp	w7, w6, [x3, #112]
    fdcc202c:	29069847 	stp	w7, w6, [x2, #52]
    fdcc2030:	34000847 	cbz	w7, 0xfdcc2138
    fdcc2034:	d2806086 	mov	x6, #0x304                 	// #772
    fdcc2038:	f2bfd006 	movk	x6, #0xfe80, lsl #16
    fdcc203c:	b94000c6 	ldr	w6, [x6]
    fdcc2040:	120010c6 	and	w6, w6, #0x1f
    fdcc2044:	b9003046 	str	w6, [x2, #48]
    fdcc2048:	d2806082 	mov	x2, #0x304                 	// #772
    fdcc204c:	d2802d07 	mov	x7, #0x168                 	// #360
    fdcc2050:	f2bfd002 	movk	x2, #0xfe80, lsl #16
    fdcc2054:	71000c9f 	cmp	w4, #0x3
    fdcc2058:	b9400046 	ldr	w6, [x2]
    fdcc205c:	911c2062 	add	x2, x3, #0x708
    fdcc2060:	9b0708a2 	madd	x2, x5, x7, x2
    fdcc2064:	d2801e87 	mov	x7, #0xf4                  	// #244
    fdcc2068:	f2bfd007 	movk	x7, #0xfe80, lsl #16
    fdcc206c:	d35870c6 	ubfx	x6, x6, #24, #5
    fdcc2070:	b9002446 	str	w6, [x2, #36]
    fdcc2074:	b94000e6 	ldr	w6, [x7]
    fdcc2078:	d35050c6 	ubfx	x6, x6, #16, #5
    fdcc207c:	b9002846 	str	w6, [x2, #40]
    fdcc2080:	b94000e6 	ldr	w6, [x7]
    fdcc2084:	910830e7 	add	x7, x7, #0x20c
    fdcc2088:	120010c6 	and	w6, w6, #0x1f
    fdcc208c:	b9002c46 	str	w6, [x2, #44]
    fdcc2090:	b94000e6 	ldr	w6, [x7]
    fdcc2094:	53177cc6 	lsr	w6, w6, #23
    fdcc2098:	b9003c46 	str	w6, [x2, #60]
    fdcc209c:	d2801f06 	mov	x6, #0xf8                  	// #248
    fdcc20a0:	f2bfd006 	movk	x6, #0xfe80, lsl #16
    fdcc20a4:	b94000c6 	ldr	w6, [x6]
    fdcc20a8:	d35060c6 	ubfx	x6, x6, #16, #9
    fdcc20ac:	b9004046 	str	w6, [x2, #64]
    fdcc20b0:	540004a1 	b.ne	0xfdcc2144  // b.any
    fdcc20b4:	1143f804 	add	w4, w0, #0xfe, lsl #12
    fdcc20b8:	7100001f 	cmp	w0, #0x0
    fdcc20bc:	11094484 	add	w4, w4, #0x251
    fdcc20c0:	d2801b86 	mov	x6, #0xdc                  	// #220
    fdcc20c4:	f2bfc4a6 	movk	x6, #0xfe25, lsl #16
    fdcc20c8:	53144c84 	lsl	w4, w4, #12
    fdcc20cc:	11037084 	add	w4, w4, #0xdc
    fdcc20d0:	9a861084 	csel	x4, x4, x6, ne	// ne = any
    fdcc20d4:	52800446 	mov	w6, #0x22                  	// #34
    fdcc20d8:	b9400084 	ldr	w4, [x4]
    fdcc20dc:	0a060086 	and	w6, w4, w6
    fdcc20e0:	b9001046 	str	w6, [x2, #16]
    fdcc20e4:	52804886 	mov	w6, #0x244                 	// #580
    fdcc20e8:	0a060084 	and	w4, w4, w6
    fdcc20ec:	29011044 	stp	w4, w4, [x2, #8]
    fdcc20f0:	52802d02 	mov	w2, #0x168                 	// #360
    fdcc20f4:	52802087 	mov	w7, #0x104                 	// #260
    fdcc20f8:	72bfd007 	movk	w7, #0xfe80, lsl #16
    fdcc20fc:	9ba20c00 	umaddl	x0, w0, w2, x3
    fdcc2100:	d2800002 	mov	x2, #0x0                   	// #0
    fdcc2104:	911d4000 	add	x0, x0, #0x750
    fdcc2108:	121e7444 	and	w4, w2, #0xfffffffc
    fdcc210c:	2a2203e6 	mvn	w6, w2
    fdcc2110:	0b070084 	add	w4, w4, w7
    fdcc2114:	531d04c6 	ubfiz	w6, w6, #3, #2
    fdcc2118:	b9400084 	ldr	w4, [x4]
    fdcc211c:	1ac62484 	lsr	w4, w4, w6
    fdcc2120:	12001c84 	and	w4, w4, #0xff
    fdcc2124:	b8227804 	str	w4, [x0, x2, lsl #2]
    fdcc2128:	91000442 	add	x2, x2, #0x1
    fdcc212c:	f100805f 	cmp	x2, #0x20
    fdcc2130:	54fffec1 	b.ne	0xfdcc2108  // b.any
    fdcc2134:	14000040 	b	0xfdcc2234
    fdcc2138:	35fff686 	cbnz	w6, 0xfdcc2008
    fdcc213c:	b900305f 	str	wzr, [x2, #48]
    fdcc2140:	17ffffc2 	b	0xfdcc2048
    fdcc2144:	350001c4 	cbnz	w4, 0xfdcc217c
    fdcc2148:	1143f804 	add	w4, w0, #0xfe, lsl #12
    fdcc214c:	7100001f 	cmp	w0, #0x0
    fdcc2150:	11094484 	add	w4, w4, #0x251
    fdcc2154:	d2801b86 	mov	x6, #0xdc                  	// #220
    fdcc2158:	f2bfc4a6 	movk	x6, #0xfe25, lsl #16
    fdcc215c:	53144c84 	lsl	w4, w4, #12
    fdcc2160:	11037084 	add	w4, w4, #0xdc
    fdcc2164:	9a861084 	csel	x4, x4, x6, ne	// ne = any
    fdcc2168:	b9400084 	ldr	w4, [x4]
    fdcc216c:	121f0486 	and	w6, w4, #0x6
    fdcc2170:	12180884 	and	w4, w4, #0x700
    fdcc2174:	b9001046 	str	w6, [x2, #16]
    fdcc2178:	17ffffdd 	b	0xfdcc20ec
    fdcc217c:	7100189f 	cmp	w4, #0x6
    fdcc2180:	540001c1 	b.ne	0xfdcc21b8  // b.any
    fdcc2184:	1143f804 	add	w4, w0, #0xfe, lsl #12
    fdcc2188:	7100001f 	cmp	w0, #0x0
    fdcc218c:	11094484 	add	w4, w4, #0x251
    fdcc2190:	d2801c06 	mov	x6, #0xe0                  	// #224
    fdcc2194:	f2bfc4a6 	movk	x6, #0xfe25, lsl #16
    fdcc2198:	53144c84 	lsl	w4, w4, #12
    fdcc219c:	11038084 	add	w4, w4, #0xe0
    fdcc21a0:	9a861084 	csel	x4, x4, x6, ne	// ne = any
    fdcc21a4:	b9400084 	ldr	w4, [x4]
    fdcc21a8:	d3504c84 	ubfx	x4, x4, #16, #4
    fdcc21ac:	b9001044 	str	w4, [x2, #16]
    fdcc21b0:	b94ca864 	ldr	w4, [x3, #3240]
    fdcc21b4:	17ffffce 	b	0xfdcc20ec
    fdcc21b8:	7100051f 	cmp	w8, #0x1
    fdcc21bc:	54fff9a8 	b.hi	0xfdcc20f0  // b.pmore
    fdcc21c0:	1143f804 	add	w4, w0, #0xfe, lsl #12
    fdcc21c4:	7100001f 	cmp	w0, #0x0
    fdcc21c8:	11094484 	add	w4, w4, #0x251
    fdcc21cc:	d2801c08 	mov	x8, #0xe0                  	// #224
    fdcc21d0:	f2bfc4a8 	movk	x8, #0xfe25, lsl #16
    fdcc21d4:	53144c84 	lsl	w4, w4, #12
    fdcc21d8:	11038086 	add	w6, w4, #0xe0
    fdcc21dc:	1103a084 	add	w4, w4, #0xe8
    fdcc21e0:	9a8810c6 	csel	x6, x6, x8, ne	// ne = any
    fdcc21e4:	b94000c6 	ldr	w6, [x6]
    fdcc21e8:	53107cc6 	lsr	w6, w6, #16
    fdcc21ec:	121d08c6 	and	w6, w6, #0x38
    fdcc21f0:	b9001046 	str	w6, [x2, #16]
    fdcc21f4:	d2801d06 	mov	x6, #0xe8                  	// #232
    fdcc21f8:	f2bfc4a6 	movk	x6, #0xfe25, lsl #16
    fdcc21fc:	9a861084 	csel	x4, x4, x6, ne	// ne = any
    fdcc2200:	b9400084 	ldr	w4, [x4]
    fdcc2204:	53107c86 	lsr	w6, w4, #16
    fdcc2208:	d3504884 	ubfx	x4, x4, #16, #3
    fdcc220c:	b9000844 	str	w4, [x2, #8]
    fdcc2210:	121c08c4 	and	w4, w6, #0x70
    fdcc2214:	b9000c44 	str	w4, [x2, #12]
    fdcc2218:	b94000e4 	ldr	w4, [x7]
    fdcc221c:	d3471c84 	ubfx	x4, x4, #7, #1
    fdcc2220:	b9004444 	str	w4, [x2, #68]
    fdcc2224:	d2800702 	mov	x2, #0x38                  	// #56
    fdcc2228:	f2bfd002 	movk	x2, #0xfe80, lsl #16
    fdcc222c:	b9400042 	ldr	w2, [x2]
    fdcc2230:	370ff602 	tbnz	w2, #1, 0xfdcc20f0
    fdcc2234:	d2802d00 	mov	x0, #0x168                 	// #360
    fdcc2238:	911c2063 	add	x3, x3, #0x708
    fdcc223c:	b9403c22 	ldr	w2, [x1, #60]
    fdcc2240:	9b007ca5 	mul	x5, x5, x0
    fdcc2244:	8b050060 	add	x0, x3, x5
    fdcc2248:	b9013802 	str	w2, [x0, #312]
    fdcc224c:	b9404022 	ldr	w2, [x1, #64]
    fdcc2250:	b9013c02 	str	w2, [x0, #316]
    fdcc2254:	b9404422 	ldr	w2, [x1, #68]
    fdcc2258:	b9014002 	str	w2, [x0, #320]
    fdcc225c:	b9404c22 	ldr	w2, [x1, #76]
    fdcc2260:	b9014802 	str	w2, [x0, #328]
    fdcc2264:	b9405022 	ldr	w2, [x1, #80]
    fdcc2268:	b9014c02 	str	w2, [x0, #332]
    fdcc226c:	b9404822 	ldr	w2, [x1, #72]
    fdcc2270:	b9014402 	str	w2, [x0, #324]
    fdcc2274:	b9405422 	ldr	w2, [x1, #84]
    fdcc2278:	b9015002 	str	w2, [x0, #336]
    fdcc227c:	b9405822 	ldr	w2, [x1, #88]
    fdcc2280:	b9015402 	str	w2, [x0, #340]
    fdcc2284:	b9405c22 	ldr	w2, [x1, #92]
    fdcc2288:	b9015802 	str	w2, [x0, #344]
    fdcc228c:	294c0422 	ldp	w2, w1, [x1, #96]
    fdcc2290:	b9015c02 	str	w2, [x0, #348]
    fdcc2294:	b9016001 	str	w1, [x0, #352]
    fdcc2298:	52800040 	mov	w0, #0x2                   	// #2
    fdcc229c:	72bfd5a0 	movk	w0, #0xfead, lsl #16
    fdcc22a0:	b8256860 	str	w0, [x3, x5]
    fdcc22a4:	d65f03c0 	ret
    fdcc22a8:	b0000022 	adrp	x2, 0xfdcc7000
    fdcc22ac:	91000042 	add	x2, x2, #0x0
    fdcc22b0:	a9bf7bfd 	stp	x29, x30, [sp, #-16]!
    fdcc22b4:	2a0003e3 	mov	w3, w0
    fdcc22b8:	52955320 	mov	w0, #0xaa99                	// #43673
    fdcc22bc:	910003fd 	mov	x29, sp
    fdcc22c0:	b9402441 	ldr	w1, [x2, #36]
    fdcc22c4:	72bfe000 	movk	w0, #0xff00, lsl #16
    fdcc22c8:	6b00003f 	cmp	w1, w0
    fdcc22cc:	54000320 	b.eq	0xfdcc2330  // b.none
    fdcc22d0:	97fffcea 	bl	0xfdcc1678
    fdcc22d4:	d2840680 	mov	x0, #0x2034                	// #8244
    fdcc22d8:	d2800681 	mov	x1, #0x34                  	// #52
    fdcc22dc:	d28a0685 	mov	x5, #0x5034                	// #20532
    fdcc22e0:	f2bfc4a0 	movk	x0, #0xfe25, lsl #16
    fdcc22e4:	f2bfc4a1 	movk	x1, #0xfe25, lsl #16
    fdcc22e8:	f2bfc4a5 	movk	x5, #0xfe25, lsl #16
    fdcc22ec:	b9400024 	ldr	w4, [x1]
    fdcc22f0:	eb05001f 	cmp	x0, x5
    fdcc22f4:	b9402446 	ldr	w6, [x2, #36]
    fdcc22f8:	330010c4 	bfxil	w4, w6, #0, #5
    fdcc22fc:	b9000024 	str	w4, [x1]
    fdcc2300:	54000561 	b.ne	0xfdcc23ac  // b.any
    fdcc2304:	97fffce1 	bl	0xfdcc1688
    fdcc2308:	b9402441 	ldr	w1, [x2, #36]
    fdcc230c:	d2800600 	mov	x0, #0x30                  	// #48
    fdcc2310:	f2bfc4a0 	movk	x0, #0xfe25, lsl #16
    fdcc2314:	34000521 	cbz	w1, 0xfdcc23b8
    fdcc2318:	b9403841 	ldr	w1, [x2, #56]
    fdcc231c:	6b03003f 	cmp	w1, w3
    fdcc2320:	540004c9 	b.ls	0xfdcc23b8  // b.plast
    fdcc2324:	b9400001 	ldr	w1, [x0]
    fdcc2328:	321f0021 	orr	w1, w1, #0x2
    fdcc232c:	b9000001 	str	w1, [x0]
    fdcc2330:	b9402841 	ldr	w1, [x2, #40]
    fdcc2334:	52955320 	mov	w0, #0xaa99                	// #43673
    fdcc2338:	72bfe000 	movk	w0, #0xff00, lsl #16
    fdcc233c:	6b00003f 	cmp	w1, w0
    fdcc2340:	54000320 	b.eq	0xfdcc23a4  // b.none
    fdcc2344:	97fffccd 	bl	0xfdcc1678
    fdcc2348:	d2840680 	mov	x0, #0x2034                	// #8244
    fdcc234c:	d2800681 	mov	x1, #0x34                  	// #52
    fdcc2350:	d28a0685 	mov	x5, #0x5034                	// #20532
    fdcc2354:	f2bfc4a0 	movk	x0, #0xfe25, lsl #16
    fdcc2358:	f2bfc4a1 	movk	x1, #0xfe25, lsl #16
    fdcc235c:	f2bfc4a5 	movk	x5, #0xfe25, lsl #16
    fdcc2360:	b9400024 	ldr	w4, [x1]
    fdcc2364:	eb05001f 	cmp	x0, x5
    fdcc2368:	b9402846 	ldr	w6, [x2, #40]
    fdcc236c:	33101cc4 	bfi	w4, w6, #16, #8
    fdcc2370:	b9000024 	str	w4, [x1]
    fdcc2374:	54000281 	b.ne	0xfdcc23c4  // b.any
    fdcc2378:	97fffcc4 	bl	0xfdcc1688
    fdcc237c:	b9402840 	ldr	w0, [x2, #40]
    fdcc2380:	d2800601 	mov	x1, #0x30                  	// #48
    fdcc2384:	f2bfc4a1 	movk	x1, #0xfe25, lsl #16
    fdcc2388:	34000240 	cbz	w0, 0xfdcc23d0
    fdcc238c:	b9403c40 	ldr	w0, [x2, #60]
    fdcc2390:	6b03001f 	cmp	w0, w3
    fdcc2394:	540001e9 	b.ls	0xfdcc23d0  // b.plast
    fdcc2398:	b9400020 	ldr	w0, [x1]
    fdcc239c:	32000000 	orr	w0, w0, #0x1
    fdcc23a0:	b9000020 	str	w0, [x1]
    fdcc23a4:	a8c17bfd 	ldp	x29, x30, [sp], #16
    fdcc23a8:	d65f03c0 	ret
    fdcc23ac:	aa0003e1 	mov	x1, x0
    fdcc23b0:	91400400 	add	x0, x0, #0x1, lsl #12
    fdcc23b4:	17ffffce 	b	0xfdcc22ec
    fdcc23b8:	b9400001 	ldr	w1, [x0]
    fdcc23bc:	121e7821 	and	w1, w1, #0xfffffffd
    fdcc23c0:	17ffffdb 	b	0xfdcc232c
    fdcc23c4:	aa0003e1 	mov	x1, x0
    fdcc23c8:	91400400 	add	x0, x0, #0x1, lsl #12
    fdcc23cc:	17ffffe5 	b	0xfdcc2360
    fdcc23d0:	b9400020 	ldr	w0, [x1]
    fdcc23d4:	121f7800 	and	w0, w0, #0xfffffffe
    fdcc23d8:	17fffff2 	b	0xfdcc23a0
    fdcc23dc:	b0000022 	adrp	x2, 0xfdcc7000
    fdcc23e0:	91000042 	add	x2, x2, #0x0
    fdcc23e4:	529fe806 	mov	w6, #0xff40                	// #65344
    fdcc23e8:	91042042 	add	x2, x2, #0x108
    fdcc23ec:	d2800001 	mov	x1, #0x0                   	// #0
    fdcc23f0:	52bfba45 	mov	w5, #0xfdd20000            	// #-36569088
    fdcc23f4:	72bfb9e6 	movk	w6, #0xfdcf, lsl #16
    fdcc23f8:	320183e7 	mov	w7, #0x80008000            	// #-2147450880
    fdcc23fc:	0b0114a3 	add	w3, w5, w1, lsl #5
    fdcc2400:	0b0114c0 	add	w0, w6, w1, lsl #5
    fdcc2404:	f100143f 	cmp	x1, #0x5
    fdcc2408:	9a838000 	csel	x0, x0, x3, hi	// hi = pmore
    fdcc240c:	11001003 	add	w3, w0, #0x4
    fdcc2410:	b9400063 	ldr	w3, [x3]
    fdcc2414:	366800c3 	tbz	w3, #13, 0xfdcc242c
    fdcc2418:	b9400004 	ldr	w4, [x0]
    fdcc241c:	8b010843 	add	x3, x2, x1, lsl #2
    fdcc2420:	d34f3c84 	ubfx	x4, x4, #15, #1
    fdcc2424:	b9010c64 	str	w4, [x3, #268]
    fdcc2428:	b9000007 	str	w7, [x0]
    fdcc242c:	91000421 	add	x1, x1, #0x1
    fdcc2430:	f100203f 	cmp	x1, #0x8
    fdcc2434:	54fffe41 	b.ne	0xfdcc23fc  // b.any
    fdcc2438:	b0000024 	adrp	x4, 0xfdcc7000
    fdcc243c:	92801961 	mov	x1, #0xffffffffffffff34    	// #-204
    fdcc2440:	91000084 	add	x4, x4, #0x0
    fdcc2444:	d2806000 	mov	x0, #0x300                 	// #768
    fdcc2448:	f2a045a1 	movk	x1, #0x22d, lsl #16
    fdcc244c:	d2807203 	mov	x3, #0x390                 	// #912
    fdcc2450:	8b010081 	add	x1, x4, x1
    fdcc2454:	f2bfba40 	movk	x0, #0xfdd2, lsl #16
    fdcc2458:	f2bfba43 	movk	x3, #0xfdd2, lsl #16
    fdcc245c:	b9400002 	ldr	w2, [x0]
    fdcc2460:	12003c42 	and	w2, w2, #0xffff
    fdcc2464:	b8216802 	str	w2, [x0, x1]
    fdcc2468:	91001000 	add	x0, x0, #0x4
    fdcc246c:	eb03001f 	cmp	x0, x3
    fdcc2470:	54ffff61 	b.ne	0xfdcc245c  // b.any
    fdcc2474:	d2806000 	mov	x0, #0x300                 	// #768
    fdcc2478:	d2807201 	mov	x1, #0x390                 	// #912
    fdcc247c:	f2bfba40 	movk	x0, #0xfdd2, lsl #16
    fdcc2480:	52bfffe2 	mov	w2, #0xffff0000            	// #-65536
    fdcc2484:	f2bfba41 	movk	x1, #0xfdd2, lsl #16
    fdcc2488:	b8004402 	str	w2, [x0], #4
    fdcc248c:	eb01001f 	cmp	x0, x1
    fdcc2490:	54ffffc1 	b.ne	0xfdcc2488  // b.any
    fdcc2494:	d2801300 	mov	x0, #0x98                  	// #152
    fdcc2498:	b902109f 	str	wzr, [x4, #528]
    fdcc249c:	f2bfbb20 	movk	x0, #0xfdd9, lsl #16
    fdcc24a0:	d2800d05 	mov	x5, #0x68                  	// #104
    fdcc24a4:	f2bfbb25 	movk	x5, #0xfdd9, lsl #16
    fdcc24a8:	91042086 	add	x6, x4, #0x108
    fdcc24ac:	b9400007 	ldr	w7, [x0]
    fdcc24b0:	b94000a1 	ldr	w1, [x5]
    fdcc24b4:	2a2703e3 	mvn	w3, w7
    fdcc24b8:	2a0100e7 	orr	w7, w7, w1
    fdcc24bc:	53017c60 	lsr	w0, w3, #1
    fdcc24c0:	53027c62 	lsr	w2, w3, #2
    fdcc24c4:	2a2703e7 	mvn	w7, w7
    fdcc24c8:	531e7400 	lsl	w0, w0, #2
    fdcc24cc:	531a6442 	lsl	w2, w2, #6
    fdcc24d0:	0a210000 	bic	w0, w0, w1
    fdcc24d4:	0a210042 	bic	w2, w2, w1
    fdcc24d8:	121a0042 	and	w2, w2, #0x40
    fdcc24dc:	121e0000 	and	w0, w0, #0x4
    fdcc24e0:	2a020000 	orr	w0, w0, w2
    fdcc24e4:	53087c62 	lsr	w2, w3, #8
    fdcc24e8:	121b00e7 	and	w7, w7, #0x20
    fdcc24ec:	53155042 	lsl	w2, w2, #11
    fdcc24f0:	0a210042 	bic	w2, w2, w1
    fdcc24f4:	12150042 	and	w2, w2, #0x800
    fdcc24f8:	2a070042 	orr	w2, w2, w7
    fdcc24fc:	53047c67 	lsr	w7, w3, #4
    fdcc2500:	2a020000 	orr	w0, w0, w2
    fdcc2504:	53037c62 	lsr	w2, w3, #3
    fdcc2508:	53185ce7 	lsl	w7, w7, #8
    fdcc250c:	53196042 	lsl	w2, w2, #7
    fdcc2510:	0a2100e7 	bic	w7, w7, w1
    fdcc2514:	0a210042 	bic	w2, w2, w1
    fdcc2518:	121800e7 	and	w7, w7, #0x100
    fdcc251c:	12190042 	and	w2, w2, #0x80
    fdcc2520:	2a070042 	orr	w2, w2, w7
    fdcc2524:	2a020000 	orr	w0, w0, w2
    fdcc2528:	53077c62 	lsr	w2, w3, #7
    fdcc252c:	531f7863 	lsl	w3, w3, #1
    fdcc2530:	531c6c42 	lsl	w2, w2, #4
    fdcc2534:	0a210042 	bic	w2, w2, w1
    fdcc2538:	0a210061 	bic	w1, w3, w1
    fdcc253c:	121c0042 	and	w2, w2, #0x10
    fdcc2540:	121f0021 	and	w1, w1, #0x2
    fdcc2544:	2a010041 	orr	w1, w2, w1
    fdcc2548:	2a010000 	orr	w0, w0, w1
    fdcc254c:	5288c001 	mov	w1, #0x4600                	// #17920
    fdcc2550:	2a010000 	orr	w0, w0, w1
    fdcc2554:	d2800a01 	mov	x1, #0x50                  	// #80
    fdcc2558:	f2bfbb21 	movk	x1, #0xfdd9, lsl #16
    fdcc255c:	b90108c0 	str	w0, [x6, #264]
    fdcc2560:	2a004000 	orr	w0, w0, w0, lsl #16
    fdcc2564:	b9000020 	str	w0, [x1]
    fdcc2568:	d5033f9f 	dsb	sy
    fdcc256c:	b94108c0 	ldr	w0, [x6, #264]
    fdcc2570:	b94000a1 	ldr	w1, [x5]
    fdcc2574:	6a21001f 	bics	wzr, w0, w1
    fdcc2578:	54ffffc1 	b.ne	0xfdcc2570  // b.any
    fdcc257c:	d2800c02 	mov	x2, #0x60                  	// #96
    fdcc2580:	f2bfbb22 	movk	x2, #0xfdd9, lsl #16
    fdcc2584:	b9400041 	ldr	w1, [x2]
    fdcc2588:	6a21001f 	bics	wzr, w0, w1
    fdcc258c:	54ffffc1 	b.ne	0xfdcc2584  // b.any
    fdcc2590:	92801962 	mov	x2, #0xffffffffffffff34    	// #-204
    fdcc2594:	d2806000 	mov	x0, #0x300                 	// #768
    fdcc2598:	f2a045a2 	movk	x2, #0x22d, lsl #16
    fdcc259c:	d2807203 	mov	x3, #0x390                 	// #912
    fdcc25a0:	8b020082 	add	x2, x4, x2
    fdcc25a4:	f2bfba40 	movk	x0, #0xfdd2, lsl #16
    fdcc25a8:	f2bfba43 	movk	x3, #0xfdd2, lsl #16
    fdcc25ac:	b8626801 	ldr	w1, [x0, x2]
    fdcc25b0:	32103c21 	orr	w1, w1, #0xffff0000
    fdcc25b4:	b8004401 	str	w1, [x0], #4
    fdcc25b8:	eb03001f 	cmp	x0, x3
    fdcc25bc:	54ffff81 	b.ne	0xfdcc25ac  // b.any
    fdcc25c0:	529fe805 	mov	w5, #0xff40                	// #65344
    fdcc25c4:	91042084 	add	x4, x4, #0x108
    fdcc25c8:	d2800001 	mov	x1, #0x0                   	// #0
    fdcc25cc:	52bfba43 	mov	w3, #0xfdd20000            	// #-36569088
    fdcc25d0:	72bfb9e5 	movk	w5, #0xfdcf, lsl #16
    fdcc25d4:	0b011462 	add	w2, w3, w1, lsl #5
    fdcc25d8:	0b0114a0 	add	w0, w5, w1, lsl #5
    fdcc25dc:	f100143f 	cmp	x1, #0x5
    fdcc25e0:	9a828000 	csel	x0, x0, x2, hi	// hi = pmore
    fdcc25e4:	11001002 	add	w2, w0, #0x4
    fdcc25e8:	b9400042 	ldr	w2, [x2]
    fdcc25ec:	366800c2 	tbz	w2, #13, 0xfdcc2604
    fdcc25f0:	8b010882 	add	x2, x4, x1, lsl #2
    fdcc25f4:	b9410c42 	ldr	w2, [x2, #268]
    fdcc25f8:	53114042 	lsl	w2, w2, #15
    fdcc25fc:	32010042 	orr	w2, w2, #0x80000000
    fdcc2600:	b9000002 	str	w2, [x0]
    fdcc2604:	91000421 	add	x1, x1, #0x1
    fdcc2608:	f100203f 	cmp	x1, #0x8
    fdcc260c:	54fffe41 	b.ne	0xfdcc25d4  // b.any
    fdcc2610:	d65f03c0 	ret
    fdcc2614:	b0000020 	adrp	x0, 0xfdcc7000
    fdcc2618:	92801962 	mov	x2, #0xffffffffffffff34    	// #-204
    fdcc261c:	91000000 	add	x0, x0, #0x0
    fdcc2620:	d2806001 	mov	x1, #0x300                 	// #768
    fdcc2624:	f2a045a2 	movk	x2, #0x22d, lsl #16
    fdcc2628:	d2807204 	mov	x4, #0x390                 	// #912
    fdcc262c:	8b020002 	add	x2, x0, x2
    fdcc2630:	f2bfba41 	movk	x1, #0xfdd2, lsl #16
    fdcc2634:	f2bfba44 	movk	x4, #0xfdd2, lsl #16
    fdcc2638:	b9400023 	ldr	w3, [x1]
    fdcc263c:	12003c63 	and	w3, w3, #0xffff
    fdcc2640:	b8226823 	str	w3, [x1, x2]
    fdcc2644:	91001021 	add	x1, x1, #0x4
    fdcc2648:	eb04003f 	cmp	x1, x4
    fdcc264c:	54ffff61 	b.ne	0xfdcc2638  // b.any
    fdcc2650:	d2806001 	mov	x1, #0x300                 	// #768
    fdcc2654:	d2807202 	mov	x2, #0x390                 	// #912
    fdcc2658:	f2bfba41 	movk	x1, #0xfdd2, lsl #16
    fdcc265c:	52bfffe3 	mov	w3, #0xffff0000            	// #-65536
    fdcc2660:	f2bfba42 	movk	x2, #0xfdd2, lsl #16
    fdcc2664:	b8004423 	str	w3, [x1], #4
    fdcc2668:	eb02003f 	cmp	x1, x2
    fdcc266c:	54ffffc1 	b.ne	0xfdcc2664  // b.any
    fdcc2670:	b9421001 	ldr	w1, [x0, #528]
    fdcc2674:	d2800a03 	mov	x3, #0x50                  	// #80
    fdcc2678:	f2bfbb23 	movk	x3, #0xfdd9, lsl #16
    fdcc267c:	91042002 	add	x2, x0, #0x108
    fdcc2680:	53103c21 	lsl	w1, w1, #16
    fdcc2684:	b9000061 	str	w1, [x3]
    fdcc2688:	d5033f9f 	dsb	sy
    fdcc268c:	b9410841 	ldr	w1, [x2, #264]
    fdcc2690:	91006063 	add	x3, x3, #0x18
    fdcc2694:	b9400062 	ldr	w2, [x3]
    fdcc2698:	6a01005f 	tst	w2, w1
    fdcc269c:	54ffffc1 	b.ne	0xfdcc2694  // b.any
    fdcc26a0:	d2800c03 	mov	x3, #0x60                  	// #96
    fdcc26a4:	f2bfbb23 	movk	x3, #0xfdd9, lsl #16
    fdcc26a8:	b9400062 	ldr	w2, [x3]
    fdcc26ac:	6a02003f 	tst	w1, w2
    fdcc26b0:	54ffffc1 	b.ne	0xfdcc26a8  // b.any
    fdcc26b4:	92801962 	mov	x2, #0xffffffffffffff34    	// #-204
    fdcc26b8:	d2806001 	mov	x1, #0x300                 	// #768
    fdcc26bc:	f2a045a2 	movk	x2, #0x22d, lsl #16
    fdcc26c0:	d2807203 	mov	x3, #0x390                 	// #912
    fdcc26c4:	8b020000 	add	x0, x0, x2
    fdcc26c8:	f2bfba41 	movk	x1, #0xfdd2, lsl #16
    fdcc26cc:	f2bfba43 	movk	x3, #0xfdd2, lsl #16
    fdcc26d0:	b8606822 	ldr	w2, [x1, x0]
    fdcc26d4:	32103c42 	orr	w2, w2, #0xffff0000
    fdcc26d8:	b8004422 	str	w2, [x1], #4
    fdcc26dc:	eb03003f 	cmp	x1, x3
    fdcc26e0:	54ffff81 	b.ne	0xfdcc26d0  // b.any
    fdcc26e4:	d65f03c0 	ret
    fdcc26e8:	2a0003e4 	mov	w4, w0
    fdcc26ec:	2a0103e5 	mov	w5, w1
    fdcc26f0:	a9bf7bfd 	stp	x29, x30, [sp, #-16]!
    fdcc26f4:	52800000 	mov	w0, #0x0                   	// #0
    fdcc26f8:	910003fd 	mov	x29, sp
    fdcc26fc:	97fffac3 	bl	0xfdcc1208
    fdcc2700:	51001c82 	sub	w2, w4, #0x7
    fdcc2704:	d2801081 	mov	x1, #0x84                  	// #132
    fdcc2708:	710004bf 	cmp	w5, #0x1
    fdcc270c:	f2bfd001 	movk	x1, #0xfe80, lsl #16
    fdcc2710:	540001a1 	b.ne	0xfdcc2744  // b.any
    fdcc2714:	7100045f 	cmp	w2, #0x1
    fdcc2718:	540000c8 	b.hi	0xfdcc2730  // b.pmore
    fdcc271c:	d2800403 	mov	x3, #0x20                  	// #32
    fdcc2720:	f2bfd003 	movk	x3, #0xfe80, lsl #16
    fdcc2724:	b9400062 	ldr	w2, [x3]
    fdcc2728:	32040042 	orr	w2, w2, #0x10000000
    fdcc272c:	b9000062 	str	w2, [x3]
    fdcc2730:	b9400022 	ldr	w2, [x1]
    fdcc2734:	120d7842 	and	w2, w2, #0xfffbffff
    fdcc2738:	b9000022 	str	w2, [x1]
    fdcc273c:	a8c17bfd 	ldp	x29, x30, [sp], #16
    fdcc2740:	17fffab2 	b	0xfdcc1208
    fdcc2744:	7100045f 	cmp	w2, #0x1
    fdcc2748:	540000c8 	b.hi	0xfdcc2760  // b.pmore
    fdcc274c:	d2800403 	mov	x3, #0x20                  	// #32
    fdcc2750:	f2bfd003 	movk	x3, #0xfe80, lsl #16
    fdcc2754:	b9400062 	ldr	w2, [x3]
    fdcc2758:	12037842 	and	w2, w2, #0xefffffff
    fdcc275c:	b9000062 	str	w2, [x3]
    fdcc2760:	b9400022 	ldr	w2, [x1]
    fdcc2764:	320e0042 	orr	w2, w2, #0x40000
    fdcc2768:	17fffff4 	b	0xfdcc2738
    fdcc276c:	d0000021 	adrp	x1, 0xfdcc8000
    fdcc2770:	91250021 	add	x1, x1, #0x940
    fdcc2774:	39001020 	strb	w0, [x1, #4]
    fdcc2778:	d2bfd000 	mov	x0, #0xfe800000            	// #4269801472
    fdcc277c:	b9400000 	ldr	w0, [x0]
    fdcc2780:	79000c3f 	strh	wzr, [x1, #6]
    fdcc2784:	b900083f 	str	wzr, [x1, #8]
    fdcc2788:	d3483000 	ubfx	x0, x0, #8, #5
    fdcc278c:	39001420 	strb	w0, [x1, #5]
    fdcc2790:	7900183f 	strh	wzr, [x1, #12]
    fdcc2794:	d65f03c0 	ret
    fdcc2798:	2a0003e1 	mov	w1, w0
    fdcc279c:	7100041f 	cmp	w0, #0x1
    fdcc27a0:	540005a8 	b.hi	0xfdcc2854  // b.pmore
    fdcc27a4:	b0000020 	adrp	x0, 0xfdcc7000
    fdcc27a8:	d2803609 	mov	x9, #0x1b0                 	// #432
    fdcc27ac:	91000000 	add	x0, x0, #0x0
    fdcc27b0:	d280460a 	mov	x10, #0x230                 	// #560
    fdcc27b4:	5280208b 	mov	w11, #0x104                 	// #260
    fdcc27b8:	9132b00d 	add	x13, x0, #0xcac
    fdcc27bc:	52800008 	mov	w8, #0x0                   	// #0
    fdcc27c0:	9132f000 	add	x0, x0, #0xcbc
    fdcc27c4:	f2bfd009 	movk	x9, #0xfe80, lsl #16
    fdcc27c8:	f2bfd00a 	movk	x10, #0xfe80, lsl #16
    fdcc27cc:	72bfd00b 	movk	w11, #0xfe80, lsl #16
    fdcc27d0:	52801fec 	mov	w12, #0xff                  	// #255
    fdcc27d4:	34000421 	cbz	w1, 0xfdcc2858
    fdcc27d8:	52800187 	mov	w7, #0xc                   	// #12
    fdcc27dc:	2a0703e1 	mov	w1, w7
    fdcc27e0:	14000005 	b	0xfdcc27f4
    fdcc27e4:	aa0d03e0 	mov	x0, x13
    fdcc27e8:	52800028 	mov	w8, #0x1                   	// #1
    fdcc27ec:	52800207 	mov	w7, #0x10                  	// #16
    fdcc27f0:	52800301 	mov	w1, #0x18                  	// #24
    fdcc27f4:	53165421 	lsl	w1, w1, #10
    fdcc27f8:	d2800006 	mov	x6, #0x0                   	// #0
    fdcc27fc:	b9400122 	ldr	w2, [x9]
    fdcc2800:	12106442 	and	w2, w2, #0xffff03ff
    fdcc2804:	2a010042 	orr	w2, w2, w1
    fdcc2808:	b9000122 	str	w2, [x9]
    fdcc280c:	11100021 	add	w1, w1, #0x400
    fdcc2810:	38666802 	ldrb	w2, [x0, x6]
    fdcc2814:	910004c6 	add	x6, x6, #0x1
    fdcc2818:	b9400145 	ldr	w5, [x10]
    fdcc281c:	6b0600ff 	cmp	w7, w6
    fdcc2820:	121e7443 	and	w3, w2, #0xfffffffc
    fdcc2824:	2a2203e2 	mvn	w2, w2
    fdcc2828:	0b0b0063 	add	w3, w3, w11
    fdcc282c:	531d0442 	ubfiz	w2, w2, #3, #2
    fdcc2830:	d3505ca5 	ubfx	x5, x5, #16, #8
    fdcc2834:	b940006e 	ldr	w14, [x3]
    fdcc2838:	1ac22184 	lsl	w4, w12, w2
    fdcc283c:	1ac220a2 	lsl	w2, w5, w2
    fdcc2840:	0a2401c4 	bic	w4, w14, w4
    fdcc2844:	2a020082 	orr	w2, w4, w2
    fdcc2848:	b9000062 	str	w2, [x3]
    fdcc284c:	54fffd88 	b.hi	0xfdcc27fc  // b.pmore
    fdcc2850:	34fffca8 	cbz	w8, 0xfdcc27e4
    fdcc2854:	d65f03c0 	ret
    fdcc2858:	52800001 	mov	w1, #0x0                   	// #0
    fdcc285c:	52800187 	mov	w7, #0xc                   	// #12
    fdcc2860:	17ffffe5 	b	0xfdcc27f4
    fdcc2864:	d2bfccc1 	mov	x1, #0xfe660000            	// #4268097536
    fdcc2868:	12001c00 	and	w0, w0, #0xff
    fdcc286c:	91005021 	add	x1, x1, #0x14
    fdcc2870:	b81ec020 	stur	w0, [x1, #-20]
    fdcc2874:	b9400020 	ldr	w0, [x1]
    fdcc2878:	3637ffe0 	tbz	w0, #6, 0xfdcc2874
    fdcc287c:	d65f03c0 	ret
    fdcc2880:	12001c02 	and	w2, w0, #0xff
    fdcc2884:	7100285f 	cmp	w2, #0xa
    fdcc2888:	54000101 	b.ne	0xfdcc28a8  // b.any
    fdcc288c:	a9bf7bfd 	stp	x29, x30, [sp, #-16]!
    fdcc2890:	528001a0 	mov	w0, #0xd                   	// #13
    fdcc2894:	910003fd 	mov	x29, sp
    fdcc2898:	97fffff3 	bl	0xfdcc2864
    fdcc289c:	2a0203e0 	mov	w0, w2
    fdcc28a0:	a8c17bfd 	ldp	x29, x30, [sp], #16
    fdcc28a4:	17fffff0 	b	0xfdcc2864
    fdcc28a8:	2a0203e0 	mov	w0, w2
    fdcc28ac:	17fffffe 	b	0xfdcc28a4
    fdcc28b0:	a9bf7bfd 	stp	x29, x30, [sp, #-16]!
    fdcc28b4:	910003fd 	mov	x29, sp
    fdcc28b8:	35000200 	cbnz	w0, 0xfdcc28f8
    fdcc28bc:	52800400 	mov	w0, #0x20                  	// #32
    fdcc28c0:	97fffff0 	bl	0xfdcc2880
    fdcc28c4:	52800da0 	mov	w0, #0x6d                  	// #109
    fdcc28c8:	97ffffee 	bl	0xfdcc2880
    fdcc28cc:	52800d20 	mov	w0, #0x69                  	// #105
    fdcc28d0:	97ffffec 	bl	0xfdcc2880
    fdcc28d4:	52800dc0 	mov	w0, #0x6e                  	// #110
    fdcc28d8:	97ffffea 	bl	0xfdcc2880
    fdcc28dc:	52800400 	mov	w0, #0x20                  	// #32
    fdcc28e0:	97ffffe8 	bl	0xfdcc2880
    fdcc28e4:	52800400 	mov	w0, #0x20                  	// #32
    fdcc28e8:	97ffffe6 	bl	0xfdcc2880
    fdcc28ec:	a8c17bfd 	ldp	x29, x30, [sp], #16
    fdcc28f0:	52800740 	mov	w0, #0x3a                  	// #58
    fdcc28f4:	17ffffe3 	b	0xfdcc2880
    fdcc28f8:	7100041f 	cmp	w0, #0x1
    fdcc28fc:	54000121 	b.ne	0xfdcc2920  // b.any
    fdcc2900:	52800400 	mov	w0, #0x20                  	// #32
    fdcc2904:	97ffffdf 	bl	0xfdcc2880
    fdcc2908:	52800da0 	mov	w0, #0x6d                  	// #109
    fdcc290c:	97ffffdd 	bl	0xfdcc2880
    fdcc2910:	52800d20 	mov	w0, #0x69                  	// #105
    fdcc2914:	97ffffdb 	bl	0xfdcc2880
    fdcc2918:	52800c80 	mov	w0, #0x64                  	// #100
    fdcc291c:	17ffffef 	b	0xfdcc28d8
    fdcc2920:	7100081f 	cmp	w0, #0x2
    fdcc2924:	54000121 	b.ne	0xfdcc2948  // b.any
    fdcc2928:	52800400 	mov	w0, #0x20                  	// #32
    fdcc292c:	97ffffd5 	bl	0xfdcc2880
    fdcc2930:	52800da0 	mov	w0, #0x6d                  	// #109
    fdcc2934:	97ffffd3 	bl	0xfdcc2880
    fdcc2938:	52800c20 	mov	w0, #0x61                  	// #97
    fdcc293c:	97ffffd1 	bl	0xfdcc2880
    fdcc2940:	52800f00 	mov	w0, #0x78                  	// #120
    fdcc2944:	17ffffe5 	b	0xfdcc28d8
    fdcc2948:	71000c1f 	cmp	w0, #0x3
    fdcc294c:	540001a1 	b.ne	0xfdcc2980  // b.any
    fdcc2950:	52800400 	mov	w0, #0x20                  	// #32
    fdcc2954:	97ffffcb 	bl	0xfdcc2880
    fdcc2958:	52800e40 	mov	w0, #0x72                  	// #114
    fdcc295c:	97ffffc9 	bl	0xfdcc2880
    fdcc2960:	52800c20 	mov	w0, #0x61                  	// #97
    fdcc2964:	97ffffc7 	bl	0xfdcc2880
    fdcc2968:	52800dc0 	mov	w0, #0x6e                  	// #110
    fdcc296c:	97ffffc5 	bl	0xfdcc2880
    fdcc2970:	52800ce0 	mov	w0, #0x67                  	// #103
    fdcc2974:	97ffffc3 	bl	0xfdcc2880
    fdcc2978:	52800ca0 	mov	w0, #0x65                  	// #101
    fdcc297c:	17ffffdb 	b	0xfdcc28e8
    fdcc2980:	a8c17bfd 	ldp	x29, x30, [sp], #16
    fdcc2984:	d65f03c0 	ret
    fdcc2988:	a9bd7bfd 	stp	x29, x30, [sp, #-48]!
    fdcc298c:	7100241f 	cmp	w0, #0x9
    fdcc2990:	910003fd 	mov	x29, sp
    fdcc2994:	a90153f3 	stp	x19, x20, [sp, #16]
    fdcc2998:	2a0003f3 	mov	w19, w0
    fdcc299c:	f90013f5 	str	x21, [sp, #32]
    fdcc29a0:	540000c9 	b.ls	0xfdcc29b8  // b.plast
    fdcc29a4:	52800154 	mov	w20, #0xa                   	// #10
    fdcc29a8:	1ad40815 	udiv	w21, w0, w20
    fdcc29ac:	1b14ceb3 	msub	w19, w21, w20, w19
    fdcc29b0:	2a1503e0 	mov	w0, w21
    fdcc29b4:	97fffff5 	bl	0xfdcc2988
    fdcc29b8:	1100c260 	add	w0, w19, #0x30
    fdcc29bc:	a94153f3 	ldp	x19, x20, [sp, #16]
    fdcc29c0:	f94013f5 	ldr	x21, [sp, #32]
    fdcc29c4:	a8c37bfd 	ldp	x29, x30, [sp], #48
    fdcc29c8:	17ffffa7 	b	0xfdcc2864
    fdcc29cc:	d2806603 	mov	x3, #0x330                 	// #816
    fdcc29d0:	d2806f85 	mov	x5, #0x37c                 	// #892
    fdcc29d4:	52800004 	mov	w4, #0x0                   	// #0
    fdcc29d8:	52800001 	mov	w1, #0x0                   	// #0
    fdcc29dc:	f2bfd003 	movk	x3, #0xfe80, lsl #16
    fdcc29e0:	f2bfd005 	movk	x5, #0xfe80, lsl #16
    fdcc29e4:	52a02007 	mov	w7, #0x1000000             	// #16777216
    fdcc29e8:	52a10006 	mov	w6, #0x8000000             	// #134217728
    fdcc29ec:	b9400062 	ldr	w2, [x3]
    fdcc29f0:	12036842 	and	w2, w2, #0xe0ffffff
    fdcc29f4:	2a040042 	orr	w2, w2, w4
    fdcc29f8:	b9000062 	str	w2, [x3]
    fdcc29fc:	0b070084 	add	w4, w4, w7
    fdcc2a00:	b94000a2 	ldr	w2, [x5]
    fdcc2a04:	6b06009f 	cmp	w4, w6
    fdcc2a08:	0b220021 	add	w1, w1, w2, uxtb
    fdcc2a0c:	54ffff01 	b.ne	0xfdcc29ec  // b.any
    fdcc2a10:	b9400062 	ldr	w2, [x3]
    fdcc2a14:	52a12004 	mov	w4, #0x9000000             	// #150994944
    fdcc2a18:	12036842 	and	w2, w2, #0xe0ffffff
    fdcc2a1c:	2a040042 	orr	w2, w2, w4
    fdcc2a20:	b9000062 	str	w2, [x3]
    fdcc2a24:	53037c23 	lsr	w3, w1, #3
    fdcc2a28:	52884801 	mov	w1, #0x4240                	// #16960
    fdcc2a2c:	b94000a2 	ldr	w2, [x5]
    fdcc2a30:	72a001e1 	movk	w1, #0xf, lsl #16
    fdcc2a34:	1ac10800 	udiv	w0, w0, w1
    fdcc2a38:	4b220063 	sub	w3, w3, w2, uxtb
    fdcc2a3c:	1b017c63 	mul	w3, w3, w1
    fdcc2a40:	1ac00863 	udiv	w3, w3, w0
    fdcc2a44:	b0000020 	adrp	x0, 0xfdcc7000
    fdcc2a48:	91000000 	add	x0, x0, #0x0
    fdcc2a4c:	53077c63 	lsr	w3, w3, #7
    fdcc2a50:	79199003 	strh	w3, [x0, #3272]
    fdcc2a54:	b9410800 	ldr	w0, [x0, #264]
    fdcc2a58:	34000500 	cbz	w0, 0xfdcc2af8
    fdcc2a5c:	a9bf7bfd 	stp	x29, x30, [sp, #-16]!
    fdcc2a60:	52800ce0 	mov	w0, #0x67                  	// #103
    fdcc2a64:	910003fd 	mov	x29, sp
    fdcc2a68:	97ffff86 	bl	0xfdcc2880
    fdcc2a6c:	52800ca0 	mov	w0, #0x65                  	// #101
    fdcc2a70:	97ffff84 	bl	0xfdcc2880
    fdcc2a74:	52800e80 	mov	w0, #0x74                  	// #116
    fdcc2a78:	97ffff82 	bl	0xfdcc2880
    fdcc2a7c:	52800400 	mov	w0, #0x20                  	// #32
    fdcc2a80:	97ffff80 	bl	0xfdcc2880
    fdcc2a84:	52800e80 	mov	w0, #0x74                  	// #116
    fdcc2a88:	97ffff7e 	bl	0xfdcc2880
    fdcc2a8c:	52800c80 	mov	w0, #0x64                  	// #100
    fdcc2a90:	97ffff7c 	bl	0xfdcc2880
    fdcc2a94:	52800e20 	mov	w0, #0x71                  	// #113
    fdcc2a98:	97ffff7a 	bl	0xfdcc2880
    fdcc2a9c:	52800e20 	mov	w0, #0x71                  	// #113
    fdcc2aa0:	97ffff78 	bl	0xfdcc2880
    fdcc2aa4:	52800e60 	mov	w0, #0x73                  	// #115
    fdcc2aa8:	97ffff76 	bl	0xfdcc2880
    fdcc2aac:	52800640 	mov	w0, #0x32                  	// #50
    fdcc2ab0:	97ffff74 	bl	0xfdcc2880
    fdcc2ab4:	52800c80 	mov	w0, #0x64                  	// #100
    fdcc2ab8:	97ffff72 	bl	0xfdcc2880
    fdcc2abc:	52800e20 	mov	w0, #0x71                  	// #113
    fdcc2ac0:	97ffff70 	bl	0xfdcc2880
    fdcc2ac4:	52800740 	mov	w0, #0x3a                  	// #58
    fdcc2ac8:	97ffff6e 	bl	0xfdcc2880
    fdcc2acc:	12003c60 	and	w0, w3, #0xffff
    fdcc2ad0:	97ffffae 	bl	0xfdcc2988
    fdcc2ad4:	52800400 	mov	w0, #0x20                  	// #32
    fdcc2ad8:	97ffff6a 	bl	0xfdcc2880
    fdcc2adc:	52800e00 	mov	w0, #0x70                  	// #112
    fdcc2ae0:	97ffff68 	bl	0xfdcc2880
    fdcc2ae4:	52800e60 	mov	w0, #0x73                  	// #115
    fdcc2ae8:	97ffff66 	bl	0xfdcc2880
    fdcc2aec:	a8c17bfd 	ldp	x29, x30, [sp], #16
    fdcc2af0:	52800140 	mov	w0, #0xa                   	// #10
    fdcc2af4:	17ffff63 	b	0xfdcc2880
    fdcc2af8:	d65f03c0 	ret
    fdcc2afc:	a9be7bfd 	stp	x29, x30, [sp, #-32]!
    fdcc2b00:	721c6c1f 	tst	w0, #0xfffffff0
    fdcc2b04:	910003fd 	mov	x29, sp
    fdcc2b08:	f9000bf3 	str	x19, [sp, #16]
    fdcc2b0c:	2a0003f3 	mov	w19, w0
    fdcc2b10:	54000080 	b.eq	0xfdcc2b20  // b.none
    fdcc2b14:	12000e73 	and	w19, w19, #0xf
    fdcc2b18:	53047c00 	lsr	w0, w0, #4
    fdcc2b1c:	97fffff8 	bl	0xfdcc2afc
    fdcc2b20:	12001e60 	and	w0, w19, #0xff
    fdcc2b24:	7100267f 	cmp	w19, #0x9
    fdcc2b28:	540000a8 	b.hi	0xfdcc2b3c  // b.pmore
    fdcc2b2c:	1100c000 	add	w0, w0, #0x30
    fdcc2b30:	f9400bf3 	ldr	x19, [sp, #16]
    fdcc2b34:	a8c27bfd 	ldp	x29, x30, [sp], #32
    fdcc2b38:	17ffff4b 	b	0xfdcc2864
    fdcc2b3c:	11015c00 	add	w0, w0, #0x57
    fdcc2b40:	17fffffc 	b	0xfdcc2b30
    fdcc2b44:	5288480d 	mov	w13, #0x4240                	// #16960
    fdcc2b48:	a9bf7bfd 	stp	x29, x30, [sp, #-16]!
    fdcc2b4c:	72a001ed 	movk	w13, #0xf, lsl #16
    fdcc2b50:	2a0103ee 	mov	w14, w1
    fdcc2b54:	910003fd 	mov	x29, sp
    fdcc2b58:	1acd0829 	udiv	w9, w1, w13
    fdcc2b5c:	d2bfd001 	mov	x1, #0xfe800000            	// #4269801472
    fdcc2b60:	b9407003 	ldr	w3, [x0, #112]
    fdcc2b64:	b9400028 	ldr	w8, [x1]
    fdcc2b68:	b0000027 	adrp	x7, 0xfdcc7000
    fdcc2b6c:	51001c63 	sub	w3, w3, #0x7
    fdcc2b70:	b940000a 	ldr	w10, [x0]
    fdcc2b74:	910000e7 	add	x7, x7, #0x0
    fdcc2b78:	7100047f 	cmp	w3, #0x1
    fdcc2b7c:	d3483108 	ubfx	x8, x8, #8, #5
    fdcc2b80:	540013a8 	b.hi	0xfdcc2df4  // b.pmore
    fdcc2b84:	b946f4eb 	ldr	w11, [x7, #1780]
    fdcc2b88:	3500136b 	cbnz	w11, 0xfdcc2df4
    fdcc2b8c:	2a0203ec 	mov	w12, w2
    fdcc2b90:	2a0a03e0 	mov	w0, w10
    fdcc2b94:	97fffa9d 	bl	0xfdcc1608
    fdcc2b98:	d2803601 	mov	x1, #0x1b0                 	// #432
    fdcc2b9c:	d2804604 	mov	x4, #0x230                 	// #560
    fdcc2ba0:	f2bfd001 	movk	x1, #0xfe80, lsl #16
    fdcc2ba4:	f2bfd004 	movk	x4, #0xfe80, lsl #16
    fdcc2ba8:	b9400022 	ldr	w2, [x1]
    fdcc2bac:	12106442 	and	w2, w2, #0xffff03ff
    fdcc2bb0:	32130442 	orr	w2, w2, #0x6000
    fdcc2bb4:	b9000022 	str	w2, [x1]
    fdcc2bb8:	b9400083 	ldr	w3, [x4]
    fdcc2bbc:	b9400022 	ldr	w2, [x1]
    fdcc2bc0:	12106442 	and	w2, w2, #0xffff03ff
    fdcc2bc4:	d3505c63 	ubfx	x3, x3, #16, #8
    fdcc2bc8:	32110042 	orr	w2, w2, #0x8000
    fdcc2bcc:	b9000022 	str	w2, [x1]
    fdcc2bd0:	b9400085 	ldr	w5, [x4]
    fdcc2bd4:	795990e4 	ldrh	w4, [x7, #3272]
    fdcc2bd8:	d3505ca5 	ubfx	x5, x5, #16, #8
    fdcc2bdc:	6b05007f 	cmp	w3, w5
    fdcc2be0:	1a852066 	csel	w6, w3, w5, cs	// cs = hs, nlast
    fdcc2be4:	35000984 	cbnz	w4, 0xfdcc2d14
    fdcc2be8:	52862fe0 	mov	w0, #0x317f                	// #12671
    fdcc2bec:	72a3fa80 	movk	w0, #0x1fd4, lsl #16
    fdcc2bf0:	6b0001df 	cmp	w14, w0
    fdcc2bf4:	540001a9 	b.ls	0xfdcc2c28  // b.plast
    fdcc2bf8:	528008c0 	mov	w0, #0x46                  	// #70
    fdcc2bfc:	97ffff21 	bl	0xfdcc2880
    fdcc2c00:	52800be0 	mov	w0, #0x5f                  	// #95
    fdcc2c04:	97ffff1f 	bl	0xfdcc2880
    fdcc2c08:	52800a80 	mov	w0, #0x54                  	// #84
    fdcc2c0c:	97ffff1d 	bl	0xfdcc2880
    fdcc2c10:	52800be0 	mov	w0, #0x5f                  	// #95
    fdcc2c14:	97ffff1b 	bl	0xfdcc2880
    fdcc2c18:	52800900 	mov	w0, #0x48                  	// #72
    fdcc2c1c:	97ffff19 	bl	0xfdcc2880
    fdcc2c20:	52800140 	mov	w0, #0xa                   	// #10
    fdcc2c24:	97ffff17 	bl	0xfdcc2880
    fdcc2c28:	79da28e0 	ldrsh	w0, [x7, #3348]
    fdcc2c2c:	52884801 	mov	w1, #0x4240                	// #16960
    fdcc2c30:	72a001e1 	movk	w1, #0xf, lsl #16
    fdcc2c34:	1b097c00 	mul	w0, w0, w9
    fdcc2c38:	53196000 	lsl	w0, w0, #7
    fdcc2c3c:	1ac10c00 	sdiv	w0, w0, w1
    fdcc2c40:	52800c01 	mov	w1, #0x60                  	// #96
    fdcc2c44:	4b000020 	sub	w0, w1, w0
    fdcc2c48:	393330e0 	strb	w0, [x7, #3276]
    fdcc2c4c:	340000cc 	cbz	w12, 0xfdcc2c64
    fdcc2c50:	397330e0 	ldrb	w0, [x7, #3276]
    fdcc2c54:	71015c1f 	cmp	w0, #0x57
    fdcc2c58:	54000068 	b.hi	0xfdcc2c64  // b.pmore
    fdcc2c5c:	52800b00 	mov	w0, #0x58                  	// #88
    fdcc2c60:	393330e0 	strb	w0, [x7, #3276]
    fdcc2c64:	397330e0 	ldrb	w0, [x7, #3276]
    fdcc2c68:	5288480c 	mov	w12, #0x4240                	// #16960
    fdcc2c6c:	913340e4 	add	x4, x7, #0xcd0
    fdcc2c70:	72a001ec 	movk	w12, #0xf, lsl #16
    fdcc2c74:	4b060000 	sub	w0, w0, w6
    fdcc2c78:	9133a0e6 	add	x6, x7, #0xce8
    fdcc2c7c:	13003c00 	sxth	w0, w0
    fdcc2c80:	79199ce0 	strh	w0, [x7, #3278]
    fdcc2c84:	0b030003 	add	w3, w0, w3
    fdcc2c88:	0b050000 	add	w0, w0, w5
    fdcc2c8c:	52800025 	mov	w5, #0x1                   	// #1
    fdcc2c90:	6b0a017f 	cmp	w11, w10
    fdcc2c94:	540008a1 	b.ne	0xfdcc2da8  // b.any
    fdcc2c98:	b94108e0 	ldr	w0, [x7, #264]
    fdcc2c9c:	34000360 	cbz	w0, 0xfdcc2d08
    fdcc2ca0:	52800c60 	mov	w0, #0x63                  	// #99
    fdcc2ca4:	97fffef7 	bl	0xfdcc2880
    fdcc2ca8:	52800d80 	mov	w0, #0x6c                  	// #108
    fdcc2cac:	97fffef5 	bl	0xfdcc2880
    fdcc2cb0:	52800d60 	mov	w0, #0x6b                  	// #107
    fdcc2cb4:	97fffef3 	bl	0xfdcc2880
    fdcc2cb8:	52800400 	mov	w0, #0x20                  	// #32
    fdcc2cbc:	97fffef1 	bl	0xfdcc2880
    fdcc2cc0:	52800e60 	mov	w0, #0x73                  	// #115
    fdcc2cc4:	97fffeef 	bl	0xfdcc2880
    fdcc2cc8:	52800d60 	mov	w0, #0x6b                  	// #107
    fdcc2ccc:	97fffeed 	bl	0xfdcc2880
    fdcc2cd0:	52800ca0 	mov	w0, #0x65                  	// #101
    fdcc2cd4:	97fffeeb 	bl	0xfdcc2880
    fdcc2cd8:	52800ee0 	mov	w0, #0x77                  	// #119
    fdcc2cdc:	97fffee9 	bl	0xfdcc2880
    fdcc2ce0:	52800740 	mov	w0, #0x3a                  	// #58
    fdcc2ce4:	97fffee7 	bl	0xfdcc2880
    fdcc2ce8:	52800600 	mov	w0, #0x30                  	// #48
    fdcc2cec:	97fffee5 	bl	0xfdcc2880
    fdcc2cf0:	52800f00 	mov	w0, #0x78                  	// #120
    fdcc2cf4:	97fffee3 	bl	0xfdcc2880
    fdcc2cf8:	397330e0 	ldrb	w0, [x7, #3276]
    fdcc2cfc:	97ffff80 	bl	0xfdcc2afc
    fdcc2d00:	52800140 	mov	w0, #0xa                   	// #10
    fdcc2d04:	97fffedf 	bl	0xfdcc2880
    fdcc2d08:	52800000 	mov	w0, #0x0                   	// #0
    fdcc2d0c:	a8c17bfd 	ldp	x29, x30, [sp], #16
    fdcc2d10:	d65f03c0 	ret
    fdcc2d14:	1b097c84 	mul	w4, w4, w9
    fdcc2d18:	79da20e1 	ldrsh	w1, [x7, #3344]
    fdcc2d1c:	53196084 	lsl	w4, w4, #7
    fdcc2d20:	1acd0882 	udiv	w2, w4, w13
    fdcc2d24:	37f80241 	tbnz	w1, #31, 0xfdcc2d6c
    fdcc2d28:	79da24e1 	ldrsh	w1, [x7, #3346]
    fdcc2d2c:	1b097c21 	mul	w1, w1, w9
    fdcc2d30:	53196021 	lsl	w1, w1, #7
    fdcc2d34:	1acd0c21 	sdiv	w1, w1, w13
    fdcc2d38:	0b020021 	add	w1, w1, w2
    fdcc2d3c:	128009e2 	mov	w2, #0xffffffb0            	// #-80
    fdcc2d40:	4b010042 	sub	w2, w2, w1
    fdcc2d44:	7102c03f 	cmp	w1, #0xb0
    fdcc2d48:	12001c42 	and	w2, w2, #0xff
    fdcc2d4c:	1a9f3041 	csel	w1, w2, wzr, cc	// cc = lo, ul, last
    fdcc2d50:	393330e1 	strb	w1, [x7, #3276]
    fdcc2d54:	4b0000c0 	sub	w0, w6, w0
    fdcc2d58:	397330e1 	ldrb	w1, [x7, #3276]
    fdcc2d5c:	6b00003f 	cmp	w1, w0
    fdcc2d60:	1a802021 	csel	w1, w1, w0, cs	// cs = hs, nlast
    fdcc2d64:	393330e1 	strb	w1, [x7, #3276]
    fdcc2d68:	17ffffb9 	b	0xfdcc2c4c
    fdcc2d6c:	1b097c21 	mul	w1, w1, w9
    fdcc2d70:	529affee 	mov	w14, #0xd7ff                	// #55295
    fdcc2d74:	72a0b70e 	movk	w14, #0x5b8, lsl #16
    fdcc2d78:	6b0e009f 	cmp	w4, w14
    fdcc2d7c:	53196021 	lsl	w1, w1, #7
    fdcc2d80:	540000cc 	b.gt	0xfdcc2d98
    fdcc2d84:	1acd0c21 	sdiv	w1, w1, w13
    fdcc2d88:	0b020021 	add	w1, w1, w2
    fdcc2d8c:	52800c02 	mov	w2, #0x60                  	// #96
    fdcc2d90:	4b010041 	sub	w1, w2, w1
    fdcc2d94:	17ffffef 	b	0xfdcc2d50
    fdcc2d98:	5297b802 	mov	w2, #0xbdc0                	// #48576
    fdcc2d9c:	72bffe02 	movk	w2, #0xfff0, lsl #16
    fdcc2da0:	1ac20c21 	sdiv	w1, w1, w2
    fdcc2da4:	17ffffeb 	b	0xfdcc2d50
    fdcc2da8:	d2800002 	mov	x2, #0x0                   	// #0
    fdcc2dac:	f100045f 	cmp	x2, #0x1
    fdcc2db0:	1ac220a1 	lsl	w1, w5, w2
    fdcc2db4:	1a83800d 	csel	w13, w0, w3, hi	// hi = pmore
    fdcc2db8:	6a08003f 	tst	w1, w8
    fdcc2dbc:	540000e0 	b.eq	0xfdcc2dd8  // b.none
    fdcc2dc0:	78e278c1 	ldrsh	w1, [x6, x2, lsl #1]
    fdcc2dc4:	1b097c21 	mul	w1, w1, w9
    fdcc2dc8:	53196021 	lsl	w1, w1, #7
    fdcc2dcc:	1acc0c21 	sdiv	w1, w1, w12
    fdcc2dd0:	0b0d0021 	add	w1, w1, w13
    fdcc2dd4:	38226881 	strb	w1, [x4, x2]
    fdcc2dd8:	91000442 	add	x2, x2, #0x1
    fdcc2ddc:	f100145f 	cmp	x2, #0x5
    fdcc2de0:	54fffe61 	b.ne	0xfdcc2dac  // b.any
    fdcc2de4:	1100056b 	add	w11, w11, #0x1
    fdcc2de8:	910028c6 	add	x6, x6, #0xa
    fdcc2dec:	91001484 	add	x4, x4, #0x5
    fdcc2df0:	17ffffa8 	b	0xfdcc2c90
    fdcc2df4:	397330e0 	ldrb	w0, [x7, #3276]
    fdcc2df8:	35000260 	cbnz	w0, 0xfdcc2e44
    fdcc2dfc:	b94ce4e2 	ldr	w2, [x7, #3300]
    fdcc2e00:	9133a0e4 	add	x4, x7, #0xce8
    fdcc2e04:	79da28e1 	ldrsh	w1, [x7, #3348]
    fdcc2e08:	7100047f 	cmp	w3, #0x1
    fdcc2e0c:	1b027c21 	mul	w1, w1, w2
    fdcc2e10:	52884802 	mov	w2, #0x4240                	// #16960
    fdcc2e14:	72a001e2 	movk	w2, #0xf, lsl #16
    fdcc2e18:	53196021 	lsl	w1, w1, #7
    fdcc2e1c:	1ac20c22 	sdiv	w2, w1, w2
    fdcc2e20:	54000468 	b.hi	0xfdcc2eac  // b.pmore
    fdcc2e24:	5283ffe3 	mov	w3, #0x1fff                	// #8191
    fdcc2e28:	72a0f423 	movk	w3, #0x7a1, lsl #16
    fdcc2e2c:	6b03003f 	cmp	w1, w3
    fdcc2e30:	5400008c 	b.gt	0xfdcc2e40
    fdcc2e34:	12800fe0 	mov	w0, #0xffffff80            	// #-128
    fdcc2e38:	4b020000 	sub	w0, w0, w2
    fdcc2e3c:	12001c00 	and	w0, w0, #0xff
    fdcc2e40:	393330e0 	strb	w0, [x7, #3276]
    fdcc2e44:	397330e5 	ldrb	w5, [x7, #3276]
    fdcc2e48:	5288480b 	mov	w11, #0x4240                	// #16960
    fdcc2e4c:	9133a0e3 	add	x3, x7, #0xce8
    fdcc2e50:	913340e4 	add	x4, x7, #0xcd0
    fdcc2e54:	52800002 	mov	w2, #0x0                   	// #0
    fdcc2e58:	52800026 	mov	w6, #0x1                   	// #1
    fdcc2e5c:	72a001eb 	movk	w11, #0xf, lsl #16
    fdcc2e60:	6b0a005f 	cmp	w2, w10
    fdcc2e64:	54fff1a0 	b.eq	0xfdcc2c98  // b.none
    fdcc2e68:	d2800001 	mov	x1, #0x0                   	// #0
    fdcc2e6c:	1ac120c0 	lsl	w0, w6, w1
    fdcc2e70:	6a08001f 	tst	w0, w8
    fdcc2e74:	540000e0 	b.eq	0xfdcc2e90  // b.none
    fdcc2e78:	78e17860 	ldrsh	w0, [x3, x1, lsl #1]
    fdcc2e7c:	1b097c00 	mul	w0, w0, w9
    fdcc2e80:	53196000 	lsl	w0, w0, #7
    fdcc2e84:	1acb0c00 	sdiv	w0, w0, w11
    fdcc2e88:	0b0000a0 	add	w0, w5, w0
    fdcc2e8c:	38216880 	strb	w0, [x4, x1]
    fdcc2e90:	91000421 	add	x1, x1, #0x1
    fdcc2e94:	f100143f 	cmp	x1, #0x5
    fdcc2e98:	54fffea1 	b.ne	0xfdcc2e6c  // b.any
    fdcc2e9c:	11000442 	add	w2, w2, #0x1
    fdcc2ea0:	91002863 	add	x3, x3, #0xa
    fdcc2ea4:	91001484 	add	x4, x4, #0x5
    fdcc2ea8:	17ffffee 	b	0xfdcc2e60
    fdcc2eac:	79c05083 	ldrsh	w3, [x4, #40]
    fdcc2eb0:	37f800e3 	tbnz	w3, #31, 0xfdcc2ecc
    fdcc2eb4:	528cffe3 	mov	w3, #0x67ff                	// #26623
    fdcc2eb8:	72a13123 	movk	w3, #0x989, lsl #16
    fdcc2ebc:	6b03003f 	cmp	w1, w3
    fdcc2ec0:	54fffc0c 	b.gt	0xfdcc2e40
    fdcc2ec4:	12800be0 	mov	w0, #0xffffffa0            	// #-96
    fdcc2ec8:	17ffffdc 	b	0xfdcc2e38
    fdcc2ecc:	79c05483 	ldrsh	w3, [x4, #42]
    fdcc2ed0:	7100007f 	cmp	w3, #0x0
    fdcc2ed4:	54fffa8c 	b.gt	0xfdcc2e24
    fdcc2ed8:	529affe3 	mov	w3, #0xd7ff                	// #55295
    fdcc2edc:	72a0b703 	movk	w3, #0x5b8, lsl #16
    fdcc2ee0:	6b03003f 	cmp	w1, w3
    fdcc2ee4:	54fffaec 	b.gt	0xfdcc2e40
    fdcc2ee8:	52800c00 	mov	w0, #0x60                  	// #96
    fdcc2eec:	17ffffd3 	b	0xfdcc2e38
    fdcc2ef0:	7100081f 	cmp	w0, #0x2
    fdcc2ef4:	540013e8 	b.hi	0xfdcc3170  // b.pmore
    fdcc2ef8:	1143f843 	add	w3, w2, #0xfe, lsl #12
    fdcc2efc:	2a0003ec 	mov	w12, w0
    fdcc2f00:	11094463 	add	w3, w3, #0x251
    fdcc2f04:	7100005f 	cmp	w2, #0x0
    fdcc2f08:	d2801d00 	mov	x0, #0xe8                  	// #232
    fdcc2f0c:	a9bf7bfd 	stp	x29, x30, [sp, #-16]!
    fdcc2f10:	53144c63 	lsl	w3, w3, #12
    fdcc2f14:	1103a063 	add	w3, w3, #0xe8
    fdcc2f18:	f2bfc4a0 	movk	x0, #0xfe25, lsl #16
    fdcc2f1c:	9a801063 	csel	x3, x3, x0, ne	// ne = any
    fdcc2f20:	b0000020 	adrp	x0, 0xfdcc7000
    fdcc2f24:	910003fd 	mov	x29, sp
    fdcc2f28:	b9410800 	ldr	w0, [x0, #264]
    fdcc2f2c:	2a0103e4 	mov	w4, w1
    fdcc2f30:	b9400069 	ldr	w9, [x3]
    fdcc2f34:	2a0203eb 	mov	w11, w2
    fdcc2f38:	12001929 	and	w9, w9, #0x7f
    fdcc2f3c:	3202012d 	orr	w13, w9, #0x40000000
    fdcc2f40:	340002a0 	cbz	w0, 0xfdcc2f94
    fdcc2f44:	52800ec0 	mov	w0, #0x76                  	// #118
    fdcc2f48:	97fffe4e 	bl	0xfdcc2880
    fdcc2f4c:	52800e40 	mov	w0, #0x72                  	// #114
    fdcc2f50:	97fffe4c 	bl	0xfdcc2880
    fdcc2f54:	52800ca0 	mov	w0, #0x65                  	// #101
    fdcc2f58:	97fffe4a 	bl	0xfdcc2880
    fdcc2f5c:	52800cc0 	mov	w0, #0x66                  	// #102
    fdcc2f60:	97fffe48 	bl	0xfdcc2880
    fdcc2f64:	52800be0 	mov	w0, #0x5f                  	// #95
    fdcc2f68:	97fffe46 	bl	0xfdcc2880
    fdcc2f6c:	52800c60 	mov	w0, #0x63                  	// #99
    fdcc2f70:	97fffe44 	bl	0xfdcc2880
    fdcc2f74:	52800c20 	mov	w0, #0x61                  	// #97
    fdcc2f78:	97fffe42 	bl	0xfdcc2880
    fdcc2f7c:	52800740 	mov	w0, #0x3a                  	// #58
    fdcc2f80:	97fffe40 	bl	0xfdcc2880
    fdcc2f84:	2a0903e0 	mov	w0, w9
    fdcc2f88:	97fffedd 	bl	0xfdcc2afc
    fdcc2f8c:	52800140 	mov	w0, #0xa                   	// #10
    fdcc2f90:	97fffe3c 	bl	0xfdcc2880
    fdcc2f94:	5288bfe0 	mov	w0, #0x45ff                	// #17919
    fdcc2f98:	72a47860 	movk	w0, #0x23c3, lsl #16
    fdcc2f9c:	6b00009f 	cmp	w4, w0
    fdcc2fa0:	54000d89 	b.ls	0xfdcc3150  // b.plast
    fdcc2fa4:	52917fe0 	mov	w0, #0x8bff                	// #35839
    fdcc2fa8:	52800043 	mov	w3, #0x2                   	// #2
    fdcc2fac:	72a8f0c0 	movk	w0, #0x4786, lsl #16
    fdcc2fb0:	6b00009f 	cmp	w4, w0
    fdcc2fb4:	52800080 	mov	w0, #0x4                   	// #4
    fdcc2fb8:	1a809063 	csel	w3, w3, w0, ls	// ls = plast
    fdcc2fbc:	d280040a 	mov	x10, #0x20                  	// #32
    fdcc2fc0:	d2800701 	mov	x1, #0x38                  	// #56
    fdcc2fc4:	f2bfd00a 	movk	x10, #0xfe80, lsl #16
    fdcc2fc8:	f2bfd001 	movk	x1, #0xfe80, lsl #16
    fdcc2fcc:	b9400140 	ldr	w0, [x10]
    fdcc2fd0:	12136800 	and	w0, w0, #0xffffe0ff
    fdcc2fd4:	2a032003 	orr	w3, w0, w3, lsl #8
    fdcc2fd8:	b9000143 	str	w3, [x10]
    fdcc2fdc:	b9400020 	ldr	w0, [x1]
    fdcc2fe0:	12197800 	and	w0, w0, #0xffffffbf
    fdcc2fe4:	b9000020 	str	w0, [x1]
    fdcc2fe8:	2a0403e0 	mov	w0, w4
    fdcc2fec:	97fff937 	bl	0xfdcc14c8
    fdcc2ff0:	b9400140 	ldr	w0, [x10]
    fdcc2ff4:	7100059f 	cmp	w12, #0x1
    fdcc2ff8:	120d6c00 	and	w0, w0, #0xfff87fff
    fdcc2ffc:	54000ae1 	b.ne	0xfdcc3158  // b.any
    fdcc3000:	32100800 	orr	w0, w0, #0x70000
    fdcc3004:	d2800781 	mov	x1, #0x3c                  	// #60
    fdcc3008:	b9000140 	str	w0, [x10]
    fdcc300c:	f2bfd001 	movk	x1, #0xfe80, lsl #16
    fdcc3010:	1287e7e2 	mov	w2, #0xffffc0c0            	// #-16192
    fdcc3014:	d2800703 	mov	x3, #0x38                  	// #56
    fdcc3018:	b9400020 	ldr	w0, [x1]
    fdcc301c:	f2bfd003 	movk	x3, #0xfe80, lsl #16
    fdcc3020:	0a020000 	and	w0, w0, w2
    fdcc3024:	5282a0c2 	mov	w2, #0x1506                	// #5382
    fdcc3028:	2a020000 	orr	w0, w0, w2
    fdcc302c:	b9000020 	str	w0, [x1]
    fdcc3030:	5282a2a2 	mov	w2, #0x1515                	// #5397
    fdcc3034:	b9400420 	ldr	w0, [x1, #4]
    fdcc3038:	72a0c0c2 	movk	w2, #0x606, lsl #16
    fdcc303c:	1202c400 	and	w0, w0, #0xc0c0c0c0
    fdcc3040:	2a020000 	orr	w0, w0, w2
    fdcc3044:	b9000420 	str	w0, [x1, #4]
    fdcc3048:	d2800681 	mov	x1, #0x34                  	// #52
    fdcc304c:	52901002 	mov	w2, #0x8080                	// #32896
    fdcc3050:	f2bfd001 	movk	x1, #0xfe80, lsl #16
    fdcc3054:	72b7ffe2 	movk	w2, #0xbfff, lsl #16
    fdcc3058:	b9400020 	ldr	w0, [x1]
    fdcc305c:	0a020000 	and	w0, w0, w2
    fdcc3060:	2a092009 	orr	w9, w0, w9, lsl #8
    fdcc3064:	2a0d0129 	orr	w9, w9, w13
    fdcc3068:	b9000029 	str	w9, [x1]
    fdcc306c:	12801081 	mov	w1, #0xffffff7b            	// #-133
    fdcc3070:	b9400060 	ldr	w0, [x3]
    fdcc3074:	0a010000 	and	w0, w0, w1
    fdcc3078:	528000e1 	mov	w1, #0x7                   	// #7
    fdcc307c:	4b0b0022 	sub	w2, w1, w11
    fdcc3080:	b9000060 	str	w0, [x3]
    fdcc3084:	d28001e0 	mov	x0, #0xf                   	// #15
    fdcc3088:	d2800101 	mov	x1, #0x8                   	// #8
    fdcc308c:	b9400064 	ldr	w4, [x3]
    fdcc3090:	531e7442 	lsl	w2, w2, #2
    fdcc3094:	9ac22000 	lsl	x0, x0, x2
    fdcc3098:	0a200080 	bic	w0, w4, w0
    fdcc309c:	9ac22022 	lsl	x2, x1, x2
    fdcc30a0:	2a020000 	orr	w0, w0, w2
    fdcc30a4:	b9000060 	str	w0, [x3]
    fdcc30a8:	d2800400 	mov	x0, #0x20                  	// #32
    fdcc30ac:	f2bfd000 	movk	x0, #0xfe80, lsl #16
    fdcc30b0:	d2804282 	mov	x2, #0x214                 	// #532
    fdcc30b4:	f2bfd002 	movk	x2, #0xfe80, lsl #16
    fdcc30b8:	b9400001 	ldr	w1, [x0]
    fdcc30bc:	32000021 	orr	w1, w1, #0x1
    fdcc30c0:	b9000001 	str	w1, [x0]
    fdcc30c4:	b9400001 	ldr	w1, [x0]
    fdcc30c8:	321f0021 	orr	w1, w1, #0x2
    fdcc30cc:	b9000001 	str	w1, [x0]
    fdcc30d0:	5284e220 	mov	w0, #0x2711                	// #10001
    fdcc30d4:	b9400041 	ldr	w1, [x2]
    fdcc30d8:	121e0421 	and	w1, w1, #0xc
    fdcc30dc:	7100303f 	cmp	w1, #0xc
    fdcc30e0:	54000440 	b.eq	0xfdcc3168  // b.none
    fdcc30e4:	71000400 	subs	w0, w0, #0x1
    fdcc30e8:	54ffff61 	b.ne	0xfdcc30d4  // b.any
    fdcc30ec:	52800860 	mov	w0, #0x43                  	// #67
    fdcc30f0:	97fffde4 	bl	0xfdcc2880
    fdcc30f4:	52800820 	mov	w0, #0x41                  	// #65
    fdcc30f8:	97fffde2 	bl	0xfdcc2880
    fdcc30fc:	52800740 	mov	w0, #0x3a                  	// #58
    fdcc3100:	97fffde0 	bl	0xfdcc2880
    fdcc3104:	52800a80 	mov	w0, #0x54                  	// #84
    fdcc3108:	97fffdde 	bl	0xfdcc2880
    fdcc310c:	52800be0 	mov	w0, #0x5f                  	// #95
    fdcc3110:	97fffddc 	bl	0xfdcc2880
    fdcc3114:	528009e0 	mov	w0, #0x4f                  	// #79
    fdcc3118:	97fffdda 	bl	0xfdcc2880
    fdcc311c:	52800140 	mov	w0, #0xa                   	// #10
    fdcc3120:	97fffdd8 	bl	0xfdcc2880
    fdcc3124:	12800000 	mov	w0, #0xffffffff            	// #-1
    fdcc3128:	d2800401 	mov	x1, #0x20                  	// #32
    fdcc312c:	f2bfd001 	movk	x1, #0xfe80, lsl #16
    fdcc3130:	b9400022 	ldr	w2, [x1]
    fdcc3134:	121e7842 	and	w2, w2, #0xfffffffd
    fdcc3138:	b9000022 	str	w2, [x1]
    fdcc313c:	b9400022 	ldr	w2, [x1]
    fdcc3140:	121f7842 	and	w2, w2, #0xfffffffe
    fdcc3144:	b9000022 	str	w2, [x1]
    fdcc3148:	a8c17bfd 	ldp	x29, x30, [sp], #16
    fdcc314c:	d65f03c0 	ret
    fdcc3150:	52800023 	mov	w3, #0x1                   	// #1
    fdcc3154:	17ffff9a 	b	0xfdcc2fbc
    fdcc3158:	7100099f 	cmp	w12, #0x2
    fdcc315c:	54fff541 	b.ne	0xfdcc3004  // b.any
    fdcc3160:	320f0400 	orr	w0, w0, #0x60000
    fdcc3164:	17ffffa8 	b	0xfdcc3004
    fdcc3168:	52800000 	mov	w0, #0x0                   	// #0
    fdcc316c:	17ffffef 	b	0xfdcc3128
    fdcc3170:	52800000 	mov	w0, #0x0                   	// #0
    fdcc3174:	d65f03c0 	ret
    fdcc3178:	a9be7bfd 	stp	x29, x30, [sp, #-32]!
    fdcc317c:	aa0003f2 	mov	x18, x0
    fdcc3180:	910003fd 	mov	x29, sp
    fdcc3184:	b9406c0e 	ldr	w14, [x0, #108]
    fdcc3188:	a90153f3 	stp	x19, x20, [sp, #16]
    fdcc318c:	2a0103f3 	mov	w19, w1
    fdcc3190:	52884801 	mov	w1, #0x4240                	// #16960
    fdcc3194:	72a001e1 	movk	w1, #0xf, lsl #16
    fdcc3198:	1b017dce 	mul	w14, w14, w1
    fdcc319c:	d2809201 	mov	x1, #0x490                 	// #1168
    fdcc31a0:	f2bfc4a1 	movk	x1, #0xfe25, lsl #16
    fdcc31a4:	b9400020 	ldr	w0, [x1]
    fdcc31a8:	121f7800 	and	w0, w0, #0xfffffffe
    fdcc31ac:	b9000020 	str	w0, [x1]
    fdcc31b0:	d2807f80 	mov	x0, #0x3fc                 	// #1020
    fdcc31b4:	f2bfc4a0 	movk	x0, #0xfe25, lsl #16
    fdcc31b8:	b940000f 	ldr	w15, [x0]
    fdcc31bc:	720081ef 	ands	w15, w15, #0x10001
    fdcc31c0:	54ffffc1 	b.ne	0xfdcc31b8  // b.any
    fdcc31c4:	52908000 	mov	w0, #0x8400                	// #33792
    fdcc31c8:	72a2fae0 	movk	w0, #0x17d7, lsl #16
    fdcc31cc:	6b0001df 	cmp	w14, w0
    fdcc31d0:	54000329 	b.ls	0xfdcc3234  // b.plast
    fdcc31d4:	b9400240 	ldr	w0, [x18]
    fdcc31d8:	2a1303e2 	mov	w2, w19
    fdcc31dc:	2a0e03e1 	mov	w1, w14
    fdcc31e0:	97ffff44 	bl	0xfdcc2ef0
    fdcc31e4:	2a0003f4 	mov	w20, w0
    fdcc31e8:	2a1303e2 	mov	w2, w19
    fdcc31ec:	90000033 	adrp	x19, 0xfdcc7000
    fdcc31f0:	91000273 	add	x19, x19, #0x0
    fdcc31f4:	2a0e03e1 	mov	w1, w14
    fdcc31f8:	91333273 	add	x19, x19, #0xccc
    fdcc31fc:	aa1203e0 	mov	x0, x18
    fdcc3200:	97fffe51 	bl	0xfdcc2b44
    fdcc3204:	b9400240 	ldr	w0, [x18]
    fdcc3208:	6b0001ff 	cmp	w15, w0
    fdcc320c:	54000183 	b.cc	0xfdcc323c  // b.lo, b.ul, b.last
    fdcc3210:	d2809202 	mov	x2, #0x490                 	// #1168
    fdcc3214:	2a1403e0 	mov	w0, w20
    fdcc3218:	f2bfc4a2 	movk	x2, #0xfe25, lsl #16
    fdcc321c:	a94153f3 	ldp	x19, x20, [sp, #16]
    fdcc3220:	b9400041 	ldr	w1, [x2]
    fdcc3224:	32000021 	orr	w1, w1, #0x1
    fdcc3228:	b9000041 	str	w1, [x2]
    fdcc322c:	a8c27bfd 	ldp	x29, x30, [sp], #32
    fdcc3230:	d65f03c0 	ret
    fdcc3234:	52800014 	mov	w20, #0x0                   	// #0
    fdcc3238:	17ffffec 	b	0xfdcc31e8
    fdcc323c:	2a0f03e0 	mov	w0, w15
    fdcc3240:	97fffd56 	bl	0xfdcc2798
    fdcc3244:	79c00662 	ldrsh	w2, [x19, #2]
    fdcc3248:	2a0f03e3 	mov	w3, w15
    fdcc324c:	528000e4 	mov	w4, #0x7                   	// #7
    fdcc3250:	52800020 	mov	w0, #0x1                   	// #1
    fdcc3254:	2a0203e1 	mov	w1, w2
    fdcc3258:	97fffa54 	bl	0xfdcc1ba8
    fdcc325c:	110005ef 	add	w15, w15, #0x1
    fdcc3260:	17ffffe9 	b	0xfdcc3204
    fdcc3264:	a9bf7bfd 	stp	x29, x30, [sp, #-16]!
    fdcc3268:	2a0003e3 	mov	w3, w0
    fdcc326c:	910003fd 	mov	x29, sp
    fdcc3270:	340000a2 	cbz	w2, 0xfdcc3284
    fdcc3274:	7100045f 	cmp	w2, #0x1
    fdcc3278:	54000201 	b.ne	0xfdcc32b8  // b.any
    fdcc327c:	0b000023 	add	w3, w1, w0
    fdcc3280:	53017c63 	lsr	w3, w3, #1
    fdcc3284:	71003c7f 	cmp	w3, #0xf
    fdcc3288:	54000068 	b.hi	0xfdcc3294  // b.pmore
    fdcc328c:	52800400 	mov	w0, #0x20                  	// #32
    fdcc3290:	97fffd7c 	bl	0xfdcc2880
    fdcc3294:	52800600 	mov	w0, #0x30                  	// #48
    fdcc3298:	97fffd7a 	bl	0xfdcc2880
    fdcc329c:	52800f00 	mov	w0, #0x78                  	// #120
    fdcc32a0:	97fffd78 	bl	0xfdcc2880
    fdcc32a4:	2a0303e0 	mov	w0, w3
    fdcc32a8:	97fffe15 	bl	0xfdcc2afc
    fdcc32ac:	a8c17bfd 	ldp	x29, x30, [sp], #16
    fdcc32b0:	52800400 	mov	w0, #0x20                  	// #32
    fdcc32b4:	17fffd73 	b	0xfdcc2880
    fdcc32b8:	4b000023 	sub	w3, w1, w0
    fdcc32bc:	7100085f 	cmp	w2, #0x2
    fdcc32c0:	1a811063 	csel	w3, w3, w1, ne	// ne = any
    fdcc32c4:	17fffff0 	b	0xfdcc3284
    fdcc32c8:	a9bd7bfd 	stp	x29, x30, [sp, #-48]!
    fdcc32cc:	2a0103e6 	mov	w6, w1
    fdcc32d0:	d2bfd001 	mov	x1, #0xfe800000            	// #4269801472
    fdcc32d4:	910003fd 	mov	x29, sp
    fdcc32d8:	b9400025 	ldr	w5, [x1]
    fdcc32dc:	a90153f3 	stp	x19, x20, [sp, #16]
    fdcc32e0:	a9025bf5 	stp	x21, x22, [sp, #32]
    fdcc32e4:	d34830a5 	ubfx	x5, x5, #8, #5
    fdcc32e8:	370020a6 	tbnz	w6, #0, 0xfdcc36fc
    fdcc32ec:	36200ec6 	tbz	w6, #4, 0xfdcc34c4
    fdcc32f0:	52800a40 	mov	w0, #0x52                  	// #82
    fdcc32f4:	97fffd63 	bl	0xfdcc2880
    fdcc32f8:	52800880 	mov	w0, #0x44                  	// #68
    fdcc32fc:	97fffd61 	bl	0xfdcc2880
    fdcc3300:	528005a0 	mov	w0, #0x2d                  	// #45
    fdcc3304:	97fffd5f 	bl	0xfdcc2880
    fdcc3308:	52800a80 	mov	w0, #0x54                  	// #84
    fdcc330c:	97fffd5d 	bl	0xfdcc2880
    fdcc3310:	52800a40 	mov	w0, #0x52                  	// #82
    fdcc3314:	97fffd5b 	bl	0xfdcc2880
    fdcc3318:	52800740 	mov	w0, #0x3a                  	// #58
    fdcc331c:	97fffd59 	bl	0xfdcc2880
    fdcc3320:	52800140 	mov	w0, #0xa                   	// #10
    fdcc3324:	97fffd57 	bl	0xfdcc2880
    fdcc3328:	d2807387 	mov	x7, #0x39c                 	// #924
    fdcc332c:	d2800003 	mov	x3, #0x0                   	// #0
    fdcc3330:	52800024 	mov	w4, #0x1                   	// #1
    fdcc3334:	f2bfd007 	movk	x7, #0xfe80, lsl #16
    fdcc3338:	1ac32080 	lsl	w0, w4, w3
    fdcc333c:	6a05001f 	tst	w0, w5
    fdcc3340:	54000300 	b.eq	0xfdcc33a0  // b.none
    fdcc3344:	52800880 	mov	w0, #0x44                  	// #68
    fdcc3348:	97fffd4e 	bl	0xfdcc2880
    fdcc334c:	52800a20 	mov	w0, #0x51                  	// #81
    fdcc3350:	97fffd4c 	bl	0xfdcc2880
    fdcc3354:	52800a60 	mov	w0, #0x53                  	// #83
    fdcc3358:	97fffd4a 	bl	0xfdcc2880
    fdcc335c:	2a0303e0 	mov	w0, w3
    fdcc3360:	97fffd8a 	bl	0xfdcc2988
    fdcc3364:	52800740 	mov	w0, #0x3a                  	// #58
    fdcc3368:	97fffd46 	bl	0xfdcc2880
    fdcc336c:	52800600 	mov	w0, #0x30                  	// #48
    fdcc3370:	97fffd44 	bl	0xfdcc2880
    fdcc3374:	52800f00 	mov	w0, #0x78                  	// #120
    fdcc3378:	97fffd42 	bl	0xfdcc2880
    fdcc337c:	d2803000 	mov	x0, #0x180                 	// #384
    fdcc3380:	9b007c60 	mul	x0, x3, x0
    fdcc3384:	b8676800 	ldr	w0, [x0, x7]
    fdcc3388:	d3526000 	ubfx	x0, x0, #18, #7
    fdcc338c:	97fffddc 	bl	0xfdcc2afc
    fdcc3390:	52800580 	mov	w0, #0x2c                  	// #44
    fdcc3394:	97fffd3b 	bl	0xfdcc2880
    fdcc3398:	52800400 	mov	w0, #0x20                  	// #32
    fdcc339c:	97fffd39 	bl	0xfdcc2880
    fdcc33a0:	91000463 	add	x3, x3, #0x1
    fdcc33a4:	f100147f 	cmp	x3, #0x5
    fdcc33a8:	54fffc81 	b.ne	0xfdcc3338  // b.any
    fdcc33ac:	52800140 	mov	w0, #0xa                   	// #10
    fdcc33b0:	97fffd34 	bl	0xfdcc2880
    fdcc33b4:	5280708b 	mov	w11, #0x384                 	// #900
    fdcc33b8:	5280720c 	mov	w12, #0x390                 	// #912
    fdcc33bc:	52800007 	mov	w7, #0x0                   	// #0
    fdcc33c0:	72bfd00b 	movk	w11, #0xfe80, lsl #16
    fdcc33c4:	72bfd00c 	movk	w12, #0xfe80, lsl #16
    fdcc33c8:	2a0703e0 	mov	w0, w7
    fdcc33cc:	97fffd39 	bl	0xfdcc28b0
    fdcc33d0:	52800004 	mov	w4, #0x0                   	// #0
    fdcc33d4:	52800008 	mov	w8, #0x0                   	// #0
    fdcc33d8:	5280002d 	mov	w13, #0x1                   	// #1
    fdcc33dc:	5280300e 	mov	w14, #0x180                 	// #384
    fdcc33e0:	1ac821a0 	lsl	w0, w13, w8
    fdcc33e4:	6a05001f 	tst	w0, w5
    fdcc33e8:	540005a0 	b.eq	0xfdcc349c  // b.none
    fdcc33ec:	1100048a 	add	w10, w4, #0x1
    fdcc33f0:	7100089f 	cmp	w4, #0x2
    fdcc33f4:	54000060 	b.eq	0xfdcc3400  // b.none
    fdcc33f8:	7100155f 	cmp	w10, #0x5
    fdcc33fc:	540001a1 	b.ne	0xfdcc3430  // b.any
    fdcc3400:	52800400 	mov	w0, #0x20                  	// #32
    fdcc3404:	97fffd1f 	bl	0xfdcc2880
    fdcc3408:	52800400 	mov	w0, #0x20                  	// #32
    fdcc340c:	97fffd1d 	bl	0xfdcc2880
    fdcc3410:	52800400 	mov	w0, #0x20                  	// #32
    fdcc3414:	97fffd1b 	bl	0xfdcc2880
    fdcc3418:	52800400 	mov	w0, #0x20                  	// #32
    fdcc341c:	97fffd19 	bl	0xfdcc2880
    fdcc3420:	52800400 	mov	w0, #0x20                  	// #32
    fdcc3424:	97fffd17 	bl	0xfdcc2880
    fdcc3428:	52800400 	mov	w0, #0x20                  	// #32
    fdcc342c:	97fffd15 	bl	0xfdcc2880
    fdcc3430:	1b0e7d0f 	mul	w15, w8, w14
    fdcc3434:	52800009 	mov	w9, #0x0                   	// #0
    fdcc3438:	121e7522 	and	w2, w9, #0xfffffffc
    fdcc343c:	0b0f0042 	add	w2, w2, w15
    fdcc3440:	0b0b0040 	add	w0, w2, w11
    fdcc3444:	0b0c0042 	add	w2, w2, w12
    fdcc3448:	b9400003 	ldr	w3, [x0]
    fdcc344c:	2a2903e0 	mvn	w0, w9
    fdcc3450:	b9400041 	ldr	w1, [x2]
    fdcc3454:	2a0703e2 	mov	w2, w7
    fdcc3458:	531d0400 	ubfiz	w0, w0, #3, #2
    fdcc345c:	1ac02421 	lsr	w1, w1, w0
    fdcc3460:	12001821 	and	w1, w1, #0x7f
    fdcc3464:	1ac02460 	lsr	w0, w3, w0
    fdcc3468:	12001800 	and	w0, w0, #0x7f
    fdcc346c:	97ffff7e 	bl	0xfdcc3264
    fdcc3470:	11000529 	add	w9, w9, #0x1
    fdcc3474:	7100213f 	cmp	w9, #0x8
    fdcc3478:	54fffe01 	b.ne	0xfdcc3438  // b.any
    fdcc347c:	52800580 	mov	w0, #0x2c                  	// #44
    fdcc3480:	97fffd00 	bl	0xfdcc2880
    fdcc3484:	121e7884 	and	w4, w4, #0xfffffffd
    fdcc3488:	7100049f 	cmp	w4, #0x1
    fdcc348c:	54000061 	b.ne	0xfdcc3498  // b.any
    fdcc3490:	52800140 	mov	w0, #0xa                   	// #10
    fdcc3494:	97fffcfb 	bl	0xfdcc2880
    fdcc3498:	2a0a03e4 	mov	w4, w10
    fdcc349c:	11000508 	add	w8, w8, #0x1
    fdcc34a0:	7100151f 	cmp	w8, #0x5
    fdcc34a4:	54fff9e1 	b.ne	0xfdcc33e0  // b.any
    fdcc34a8:	7100149f 	cmp	w4, #0x5
    fdcc34ac:	54000061 	b.ne	0xfdcc34b8  // b.any
    fdcc34b0:	52800140 	mov	w0, #0xa                   	// #10
    fdcc34b4:	97fffcf3 	bl	0xfdcc2880
    fdcc34b8:	110004e7 	add	w7, w7, #0x1
    fdcc34bc:	710010ff 	cmp	w7, #0x4
    fdcc34c0:	54fff841 	b.ne	0xfdcc33c8  // b.any
    fdcc34c4:	36181146 	tbz	w6, #3, 0xfdcc36ec
    fdcc34c8:	52800ae0 	mov	w0, #0x57                  	// #87
    fdcc34cc:	97fffced 	bl	0xfdcc2880
    fdcc34d0:	52800a40 	mov	w0, #0x52                  	// #82
    fdcc34d4:	97fffceb 	bl	0xfdcc2880
    fdcc34d8:	528005a0 	mov	w0, #0x2d                  	// #45
    fdcc34dc:	97fffce9 	bl	0xfdcc2880
    fdcc34e0:	52800a80 	mov	w0, #0x54                  	// #84
    fdcc34e4:	97fffce7 	bl	0xfdcc2880
    fdcc34e8:	52800a40 	mov	w0, #0x52                  	// #82
    fdcc34ec:	97fffce5 	bl	0xfdcc2880
    fdcc34f0:	52800740 	mov	w0, #0x3a                  	// #58
    fdcc34f4:	97fffce3 	bl	0xfdcc2880
    fdcc34f8:	52800140 	mov	w0, #0xa                   	// #10
    fdcc34fc:	97fffce1 	bl	0xfdcc2880
    fdcc3500:	d2806604 	mov	x4, #0x330                 	// #816
    fdcc3504:	d2806f89 	mov	x9, #0x37c                 	// #892
    fdcc3508:	d2800003 	mov	x3, #0x0                   	// #0
    fdcc350c:	52800026 	mov	w6, #0x1                   	// #1
    fdcc3510:	d2803007 	mov	x7, #0x180                 	// #384
    fdcc3514:	f2bfd004 	movk	x4, #0xfe80, lsl #16
    fdcc3518:	52a14008 	mov	w8, #0xa000000             	// #167772160
    fdcc351c:	f2bfd009 	movk	x9, #0xfe80, lsl #16
    fdcc3520:	1ac320c0 	lsl	w0, w6, w3
    fdcc3524:	6a05001f 	tst	w0, w5
    fdcc3528:	54000360 	b.eq	0xfdcc3594  // b.none
    fdcc352c:	9b077c61 	mul	x1, x3, x7
    fdcc3530:	b8646820 	ldr	w0, [x1, x4]
    fdcc3534:	12036800 	and	w0, w0, #0xe0ffffff
    fdcc3538:	2a080000 	orr	w0, w0, w8
    fdcc353c:	b8246820 	str	w0, [x1, x4]
    fdcc3540:	52800880 	mov	w0, #0x44                  	// #68
    fdcc3544:	b869682a 	ldr	w10, [x1, x9]
    fdcc3548:	97fffcce 	bl	0xfdcc2880
    fdcc354c:	52800a20 	mov	w0, #0x51                  	// #81
    fdcc3550:	97fffccc 	bl	0xfdcc2880
    fdcc3554:	52800a60 	mov	w0, #0x53                  	// #83
    fdcc3558:	97fffcca 	bl	0xfdcc2880
    fdcc355c:	2a0303e0 	mov	w0, w3
    fdcc3560:	97fffd0a 	bl	0xfdcc2988
    fdcc3564:	52800740 	mov	w0, #0x3a                  	// #58
    fdcc3568:	97fffcc6 	bl	0xfdcc2880
    fdcc356c:	52800600 	mov	w0, #0x30                  	// #48
    fdcc3570:	97fffcc4 	bl	0xfdcc2880
    fdcc3574:	52800f00 	mov	w0, #0x78                  	// #120
    fdcc3578:	97fffcc2 	bl	0xfdcc2880
    fdcc357c:	12001d40 	and	w0, w10, #0xff
    fdcc3580:	97fffd5f 	bl	0xfdcc2afc
    fdcc3584:	52800580 	mov	w0, #0x2c                  	// #44
    fdcc3588:	97fffcbe 	bl	0xfdcc2880
    fdcc358c:	52800400 	mov	w0, #0x20                  	// #32
    fdcc3590:	97fffcbc 	bl	0xfdcc2880
    fdcc3594:	91000463 	add	x3, x3, #0x1
    fdcc3598:	f100147f 	cmp	x3, #0x5
    fdcc359c:	54fffc21 	b.ne	0xfdcc3520  // b.any
    fdcc35a0:	52800140 	mov	w0, #0xa                   	// #10
    fdcc35a4:	97fffcb7 	bl	0xfdcc2880
    fdcc35a8:	5280768a 	mov	w10, #0x3b4                 	// #948
    fdcc35ac:	5280780b 	mov	w11, #0x3c0                 	// #960
    fdcc35b0:	d280760c 	mov	x12, #0x3b0                 	// #944
    fdcc35b4:	52800006 	mov	w6, #0x0                   	// #0
    fdcc35b8:	72bfd00a 	movk	w10, #0xfe80, lsl #16
    fdcc35bc:	72bfd00b 	movk	w11, #0xfe80, lsl #16
    fdcc35c0:	f2bfd00c 	movk	x12, #0xfe80, lsl #16
    fdcc35c4:	2a0603e0 	mov	w0, w6
    fdcc35c8:	97fffcba 	bl	0xfdcc28b0
    fdcc35cc:	d280778e 	mov	x14, #0x3bc                 	// #956
    fdcc35d0:	d2800007 	mov	x7, #0x0                   	// #0
    fdcc35d4:	52800004 	mov	w4, #0x0                   	// #0
    fdcc35d8:	5280002d 	mov	w13, #0x1                   	// #1
    fdcc35dc:	f2bfd00e 	movk	x14, #0xfe80, lsl #16
    fdcc35e0:	1ac721a0 	lsl	w0, w13, w7
    fdcc35e4:	2a0703ef 	mov	w15, w7
    fdcc35e8:	6a05001f 	tst	w0, w5
    fdcc35ec:	540006c0 	b.eq	0xfdcc36c4  // b.none
    fdcc35f0:	11000489 	add	w9, w4, #0x1
    fdcc35f4:	7100089f 	cmp	w4, #0x2
    fdcc35f8:	54000060 	b.eq	0xfdcc3604  // b.none
    fdcc35fc:	7100153f 	cmp	w9, #0x5
    fdcc3600:	540001a1 	b.ne	0xfdcc3634  // b.any
    fdcc3604:	52800400 	mov	w0, #0x20                  	// #32
    fdcc3608:	97fffc9e 	bl	0xfdcc2880
    fdcc360c:	52800400 	mov	w0, #0x20                  	// #32
    fdcc3610:	97fffc9c 	bl	0xfdcc2880
    fdcc3614:	52800400 	mov	w0, #0x20                  	// #32
    fdcc3618:	97fffc9a 	bl	0xfdcc2880
    fdcc361c:	52800400 	mov	w0, #0x20                  	// #32
    fdcc3620:	97fffc98 	bl	0xfdcc2880
    fdcc3624:	52800400 	mov	w0, #0x20                  	// #32
    fdcc3628:	97fffc96 	bl	0xfdcc2880
    fdcc362c:	52800400 	mov	w0, #0x20                  	// #32
    fdcc3630:	97fffc94 	bl	0xfdcc2880
    fdcc3634:	52803000 	mov	w0, #0x180                 	// #384
    fdcc3638:	52800008 	mov	w8, #0x0                   	// #0
    fdcc363c:	1b007def 	mul	w15, w15, w0
    fdcc3640:	121e7501 	and	w1, w8, #0xfffffffc
    fdcc3644:	0b0f0021 	add	w1, w1, w15
    fdcc3648:	0b0a0020 	add	w0, w1, w10
    fdcc364c:	0b0b0021 	add	w1, w1, w11
    fdcc3650:	b9400002 	ldr	w2, [x0]
    fdcc3654:	2a2803e0 	mvn	w0, w8
    fdcc3658:	b9400021 	ldr	w1, [x1]
    fdcc365c:	531d0400 	ubfiz	w0, w0, #3, #2
    fdcc3660:	1ac02421 	lsr	w1, w1, w0
    fdcc3664:	12001c21 	and	w1, w1, #0xff
    fdcc3668:	1ac02440 	lsr	w0, w2, w0
    fdcc366c:	2a0603e2 	mov	w2, w6
    fdcc3670:	12001c00 	and	w0, w0, #0xff
    fdcc3674:	97fffefc 	bl	0xfdcc3264
    fdcc3678:	11000508 	add	w8, w8, #0x1
    fdcc367c:	7100211f 	cmp	w8, #0x8
    fdcc3680:	54fffe01 	b.ne	0xfdcc3640  // b.any
    fdcc3684:	d2803001 	mov	x1, #0x180                 	// #384
    fdcc3688:	2a0603e2 	mov	w2, w6
    fdcc368c:	9b017ce1 	mul	x1, x7, x1
    fdcc3690:	b86c6820 	ldr	w0, [x1, x12]
    fdcc3694:	b86e6821 	ldr	w1, [x1, x14]
    fdcc3698:	d3483c00 	ubfx	x0, x0, #8, #8
    fdcc369c:	d3483c21 	ubfx	x1, x1, #8, #8
    fdcc36a0:	97fffef1 	bl	0xfdcc3264
    fdcc36a4:	52800580 	mov	w0, #0x2c                  	// #44
    fdcc36a8:	97fffc76 	bl	0xfdcc2880
    fdcc36ac:	121e7884 	and	w4, w4, #0xfffffffd
    fdcc36b0:	7100049f 	cmp	w4, #0x1
    fdcc36b4:	54000061 	b.ne	0xfdcc36c0  // b.any
    fdcc36b8:	52800140 	mov	w0, #0xa                   	// #10
    fdcc36bc:	97fffc71 	bl	0xfdcc2880
    fdcc36c0:	2a0903e4 	mov	w4, w9
    fdcc36c4:	910004e7 	add	x7, x7, #0x1
    fdcc36c8:	f10014ff 	cmp	x7, #0x5
    fdcc36cc:	54fff8a1 	b.ne	0xfdcc35e0  // b.any
    fdcc36d0:	7100149f 	cmp	w4, #0x5
    fdcc36d4:	54000061 	b.ne	0xfdcc36e0  // b.any
    fdcc36d8:	52800140 	mov	w0, #0xa                   	// #10
    fdcc36dc:	97fffc69 	bl	0xfdcc2880
    fdcc36e0:	110004c6 	add	w6, w6, #0x1
    fdcc36e4:	710010df 	cmp	w6, #0x4
    fdcc36e8:	54fff6e1 	b.ne	0xfdcc35c4  // b.any
    fdcc36ec:	a94153f3 	ldp	x19, x20, [sp, #16]
    fdcc36f0:	a9425bf5 	ldp	x21, x22, [sp, #32]
    fdcc36f4:	a8c37bfd 	ldp	x29, x30, [sp], #48
    fdcc36f8:	d65f03c0 	ret
    fdcc36fc:	b9407001 	ldr	w1, [x0, #112]
    fdcc3700:	51001c21 	sub	w1, w1, #0x7
    fdcc3704:	7100043f 	cmp	w1, #0x1
    fdcc3708:	54ffdf28 	b.hi	0xfdcc32ec  // b.pmore
    fdcc370c:	d2803601 	mov	x1, #0x1b0                 	// #432
    fdcc3710:	b940000d 	ldr	w13, [x0]
    fdcc3714:	f2bfd001 	movk	x1, #0xfe80, lsl #16
    fdcc3718:	d2804602 	mov	x2, #0x230                 	// #560
    fdcc371c:	f2bfd002 	movk	x2, #0xfe80, lsl #16
    fdcc3720:	120000ce 	and	w14, w6, #0x1
    fdcc3724:	b9400020 	ldr	w0, [x1]
    fdcc3728:	12106400 	and	w0, w0, #0xffff03ff
    fdcc372c:	32130400 	orr	w0, w0, #0x6000
    fdcc3730:	b9000020 	str	w0, [x1]
    fdcc3734:	b9400040 	ldr	w0, [x2]
    fdcc3738:	b9400020 	ldr	w0, [x1]
    fdcc373c:	12106400 	and	w0, w0, #0xffff03ff
    fdcc3740:	32110000 	orr	w0, w0, #0x8000
    fdcc3744:	b9000020 	str	w0, [x1]
    fdcc3748:	b9400040 	ldr	w0, [x2]
    fdcc374c:	52800860 	mov	w0, #0x43                  	// #67
    fdcc3750:	97fffc4c 	bl	0xfdcc2880
    fdcc3754:	52800820 	mov	w0, #0x41                  	// #65
    fdcc3758:	97fffc4a 	bl	0xfdcc2880
    fdcc375c:	528005a0 	mov	w0, #0x2d                  	// #45
    fdcc3760:	97fffc48 	bl	0xfdcc2880
    fdcc3764:	52800a80 	mov	w0, #0x54                  	// #84
    fdcc3768:	97fffc46 	bl	0xfdcc2880
    fdcc376c:	52800a40 	mov	w0, #0x52                  	// #82
    fdcc3770:	97fffc44 	bl	0xfdcc2880
    fdcc3774:	52800740 	mov	w0, #0x3a                  	// #58
    fdcc3778:	97fffc42 	bl	0xfdcc2880
    fdcc377c:	52800140 	mov	w0, #0xa                   	// #10
    fdcc3780:	97fffc40 	bl	0xfdcc2880
    fdcc3784:	90000027 	adrp	x7, 0xfdcc7000
    fdcc3788:	910000e7 	add	x7, x7, #0x0
    fdcc378c:	913458e7 	add	x7, x7, #0xd16
    fdcc3790:	52800004 	mov	w4, #0x0                   	// #0
    fdcc3794:	5280468f 	mov	w15, #0x234                 	// #564
    fdcc3798:	52804e92 	mov	w18, #0x274                 	// #628
    fdcc379c:	6b0d009f 	cmp	w4, w13
    fdcc37a0:	54ffda60 	b.eq	0xfdcc32ec  // b.none
    fdcc37a4:	d37d0089 	ubfiz	x9, x4, #3, #1
    fdcc37a8:	7100089f 	cmp	w4, #0x2
    fdcc37ac:	8b0900e9 	add	x9, x7, x9
    fdcc37b0:	1a9231eb 	csel	w11, w15, w18, cc	// cc = lo, ul, last
    fdcc37b4:	aa0903ea 	mov	x10, x9
    fdcc37b8:	52800008 	mov	w8, #0x0                   	// #0
    fdcc37bc:	52800c60 	mov	w0, #0x63                  	// #99
    fdcc37c0:	97fffc30 	bl	0xfdcc2880
    fdcc37c4:	52800e60 	mov	w0, #0x73                  	// #115
    fdcc37c8:	97fffc2e 	bl	0xfdcc2880
    fdcc37cc:	52800740 	mov	w0, #0x3a                  	// #58
    fdcc37d0:	97fffc2c 	bl	0xfdcc2880
    fdcc37d4:	2a0403e0 	mov	w0, w4
    fdcc37d8:	97fffc6c 	bl	0xfdcc2988
    fdcc37dc:	2a0803e0 	mov	w0, w8
    fdcc37e0:	97fffc34 	bl	0xfdcc28b0
    fdcc37e4:	5280004c 	mov	w12, #0x2                   	// #2
    fdcc37e8:	52800014 	mov	w20, #0x0                   	// #0
    fdcc37ec:	52bfd013 	mov	w19, #0xfe800000            	// #-25165824
    fdcc37f0:	0b130176 	add	w22, w11, w19
    fdcc37f4:	52800015 	mov	w21, #0x0                   	// #0
    fdcc37f8:	0b1402d6 	add	w22, w22, w20
    fdcc37fc:	79400122 	ldrh	w2, [x9]
    fdcc3800:	79400923 	ldrh	w3, [x9, #4]
    fdcc3804:	0b150042 	add	w2, w2, w21
    fdcc3808:	0b150063 	add	w3, w3, w21
    fdcc380c:	121e7440 	and	w0, w2, #0xfffffffc
    fdcc3810:	121e7461 	and	w1, w3, #0xfffffffc
    fdcc3814:	0b160000 	add	w0, w0, w22
    fdcc3818:	0b160021 	add	w1, w1, w22
    fdcc381c:	2a2303e3 	mvn	w3, w3
    fdcc3820:	2a2203e2 	mvn	w2, w2
    fdcc3824:	110006b5 	add	w21, w21, #0x1
    fdcc3828:	b9400000 	ldr	w0, [x0]
    fdcc382c:	531d0463 	ubfiz	w3, w3, #3, #2
    fdcc3830:	b9400021 	ldr	w1, [x1]
    fdcc3834:	531d0442 	ubfiz	w2, w2, #3, #2
    fdcc3838:	1ac22400 	lsr	w0, w0, w2
    fdcc383c:	2a0803e2 	mov	w2, w8
    fdcc3840:	1ac32421 	lsr	w1, w1, w3
    fdcc3844:	12001c00 	and	w0, w0, #0xff
    fdcc3848:	12001c21 	and	w1, w1, #0xff
    fdcc384c:	97fffe86 	bl	0xfdcc3264
    fdcc3850:	71001abf 	cmp	w21, #0x6
    fdcc3854:	54fffd41 	b.ne	0xfdcc37fc  // b.any
    fdcc3858:	79400543 	ldrh	w3, [x10, #2]
    fdcc385c:	0b140174 	add	w20, w11, w20
    fdcc3860:	79400d50 	ldrh	w16, [x10, #6]
    fdcc3864:	121e7460 	and	w0, w3, #0xfffffffc
    fdcc3868:	2a2303e3 	mvn	w3, w3
    fdcc386c:	121e7602 	and	w2, w16, #0xfffffffc
    fdcc3870:	0b130000 	add	w0, w0, w19
    fdcc3874:	0b130042 	add	w2, w2, w19
    fdcc3878:	0b140000 	add	w0, w0, w20
    fdcc387c:	0b140042 	add	w2, w2, w20
    fdcc3880:	2a3003f0 	mvn	w16, w16
    fdcc3884:	531d0463 	ubfiz	w3, w3, #3, #2
    fdcc3888:	52800394 	mov	w20, #0x1c                  	// #28
    fdcc388c:	b9400000 	ldr	w0, [x0]
    fdcc3890:	531d0610 	ubfiz	w16, w16, #3, #2
    fdcc3894:	b9400041 	ldr	w1, [x2]
    fdcc3898:	2a0803e2 	mov	w2, w8
    fdcc389c:	1ac32400 	lsr	w0, w0, w3
    fdcc38a0:	12001c00 	and	w0, w0, #0xff
    fdcc38a4:	1ad02421 	lsr	w1, w1, w16
    fdcc38a8:	12001c21 	and	w1, w1, #0xff
    fdcc38ac:	97fffe6e 	bl	0xfdcc3264
    fdcc38b0:	52800580 	mov	w0, #0x2c                  	// #44
    fdcc38b4:	97fffbf3 	bl	0xfdcc2880
    fdcc38b8:	7100059f 	cmp	w12, #0x1
    fdcc38bc:	54000101 	b.ne	0xfdcc38dc  // b.any
    fdcc38c0:	52800140 	mov	w0, #0xa                   	// #10
    fdcc38c4:	97fffbef 	bl	0xfdcc2880
    fdcc38c8:	11000508 	add	w8, w8, #0x1
    fdcc38cc:	7100111f 	cmp	w8, #0x4
    fdcc38d0:	54fff761 	b.ne	0xfdcc37bc  // b.any
    fdcc38d4:	11000484 	add	w4, w4, #0x1
    fdcc38d8:	17ffffb1 	b	0xfdcc379c
    fdcc38dc:	2a0e03ec 	mov	w12, w14
    fdcc38e0:	17ffffc4 	b	0xfdcc37f0
    fdcc38e4:	340000c0 	cbz	w0, 0xfdcc38fc
    fdcc38e8:	d2803001 	mov	x1, #0x180                 	// #384
    fdcc38ec:	f2bfc4a1 	movk	x1, #0xfe25, lsl #16
    fdcc38f0:	b9400020 	ldr	w0, [x1]
    fdcc38f4:	12007800 	and	w0, w0, #0x7fffffff
    fdcc38f8:	b9000020 	str	w0, [x1]
    fdcc38fc:	d2800c01 	mov	x1, #0x60                  	// #96
    fdcc3900:	f2bfc4a1 	movk	x1, #0xfe25, lsl #16
    fdcc3904:	b9400020 	ldr	w0, [x1]
    fdcc3908:	121f7800 	and	w0, w0, #0xfffffffe
    fdcc390c:	b9000020 	str	w0, [x1]
    fdcc3910:	17fff655 	b	0xfdcc1264
    fdcc3914:	d2803000 	mov	x0, #0x180                 	// #384
    fdcc3918:	a9bf7bfd 	stp	x29, x30, [sp, #-16]!
    fdcc391c:	f2bfc4a0 	movk	x0, #0xfe25, lsl #16
    fdcc3920:	910003fd 	mov	x29, sp
    fdcc3924:	b9400001 	ldr	w1, [x0]
    fdcc3928:	37f801c1 	tbnz	w1, #31, 0xfdcc3960
    fdcc392c:	b9400001 	ldr	w1, [x0]
    fdcc3930:	52800022 	mov	w2, #0x1                   	// #1
    fdcc3934:	32010021 	orr	w1, w1, #0x80000000
    fdcc3938:	b9000001 	str	w1, [x0]
    fdcc393c:	d2800c01 	mov	x1, #0x60                  	// #96
    fdcc3940:	f2bfc4a1 	movk	x1, #0xfe25, lsl #16
    fdcc3944:	b9400020 	ldr	w0, [x1]
    fdcc3948:	32000000 	orr	w0, w0, #0x1
    fdcc394c:	b9000020 	str	w0, [x1]
    fdcc3950:	97fff645 	bl	0xfdcc1264
    fdcc3954:	2a0203e0 	mov	w0, w2
    fdcc3958:	a8c17bfd 	ldp	x29, x30, [sp], #16
    fdcc395c:	d65f03c0 	ret
    fdcc3960:	52800002 	mov	w2, #0x0                   	// #0
    fdcc3964:	17fffff6 	b	0xfdcc393c
    fdcc3968:	90000026 	adrp	x6, 0xfdcc7000
    fdcc396c:	910000c6 	add	x6, x6, #0x0
    fdcc3970:	a9ba7bfd 	stp	x29, x30, [sp, #-96]!
    fdcc3974:	2a0103e8 	mov	w8, w1
    fdcc3978:	aa0003eb 	mov	x11, x0
    fdcc397c:	910003fd 	mov	x29, sp
    fdcc3980:	b946f4c1 	ldr	w1, [x6, #1780]
    fdcc3984:	a90153f3 	stp	x19, x20, [sp, #16]
    fdcc3988:	294da414 	ldp	w20, w9, [x0, #108]
    fdcc398c:	a9025bf5 	stp	x21, x22, [sp, #32]
    fdcc3990:	b94078c0 	ldr	w0, [x6, #120]
    fdcc3994:	f9001bf7 	str	x23, [sp, #48]
    fdcc3998:	340000a1 	cbz	w1, 0xfdcc39ac
    fdcc399c:	710a281f 	cmp	w0, #0x28a
    fdcc39a0:	54000069 	b.ls	0xfdcc39ac  // b.plast
    fdcc39a4:	52805140 	mov	w0, #0x28a                 	// #650
    fdcc39a8:	b90078c0 	str	w0, [x6, #120]
    fdcc39ac:	6b00029f 	cmp	w20, w0
    fdcc39b0:	540004c8 	b.hi	0xfdcc3a48  // b.pmore
    fdcc39b4:	b94058c0 	ldr	w0, [x6, #88]
    fdcc39b8:	52800007 	mov	w7, #0x0                   	// #0
    fdcc39bc:	2951d8d2 	ldp	w18, w22, [x6, #140]
    fdcc39c0:	79009be0 	strh	w0, [sp, #76]
    fdcc39c4:	b94094d7 	ldr	w23, [x6, #148]
    fdcc39c8:	b94060c0 	ldr	w0, [x6, #96]
    fdcc39cc:	b940d4c5 	ldr	w5, [x6, #212]
    fdcc39d0:	790093e0 	strh	w0, [sp, #72]
    fdcc39d4:	b9405cc0 	ldr	w0, [x6, #92]
    fdcc39d8:	790097e0 	strh	w0, [sp, #74]
    fdcc39dc:	b9407cc0 	ldr	w0, [x6, #124]
    fdcc39e0:	340000a1 	cbz	w1, 0xfdcc39f4
    fdcc39e4:	710a281f 	cmp	w0, #0x28a
    fdcc39e8:	54000069 	b.ls	0xfdcc39f4  // b.plast
    fdcc39ec:	52805140 	mov	w0, #0x28a                 	// #650
    fdcc39f0:	b9007cc0 	str	w0, [x6, #124]
    fdcc39f4:	51001d2f 	sub	w15, w9, #0x7
    fdcc39f8:	6b00029f 	cmp	w20, w0
    fdcc39fc:	540003c8 	b.hi	0xfdcc3a74  // b.pmore
    fdcc3a00:	79009fff 	strh	wzr, [sp, #78]
    fdcc3a04:	710005ff 	cmp	w15, #0x1
    fdcc3a08:	b94064ca 	ldr	w10, [x6, #100]
    fdcc3a0c:	b940cccd 	ldr	w13, [x6, #204]
    fdcc3a10:	54000168 	b.hi	0xfdcc3a3c  // b.pmore
    fdcc3a14:	d2806100 	mov	x0, #0x308                 	// #776
    fdcc3a18:	d2815102 	mov	x2, #0xa88                 	// #2696
    fdcc3a1c:	f2bfd000 	movk	x0, #0xfe80, lsl #16
    fdcc3a20:	f2bfd002 	movk	x2, #0xfe80, lsl #16
    fdcc3a24:	b9400001 	ldr	w1, [x0]
    fdcc3a28:	12167821 	and	w1, w1, #0xfffffdff
    fdcc3a2c:	b9000001 	str	w1, [x0]
    fdcc3a30:	91060000 	add	x0, x0, #0x180
    fdcc3a34:	eb02001f 	cmp	x0, x2
    fdcc3a38:	54ffff61 	b.ne	0xfdcc3a24  // b.any
    fdcc3a3c:	52800013 	mov	w19, #0x0                   	// #0
    fdcc3a40:	52800015 	mov	w21, #0x0                   	// #0
    fdcc3a44:	1400001d 	b	0xfdcc3ab8
    fdcc3a48:	b94048c0 	ldr	w0, [x6, #72]
    fdcc3a4c:	79009be0 	strh	w0, [sp, #76]
    fdcc3a50:	b94050c0 	ldr	w0, [x6, #80]
    fdcc3a54:	790093e0 	strh	w0, [sp, #72]
    fdcc3a58:	b9404cc0 	ldr	w0, [x6, #76]
    fdcc3a5c:	b94068c7 	ldr	w7, [x6, #104]
    fdcc3a60:	295058d2 	ldp	w18, w22, [x6, #128]
    fdcc3a64:	790097e0 	strh	w0, [sp, #74]
    fdcc3a68:	b94088d7 	ldr	w23, [x6, #136]
    fdcc3a6c:	b940d0c5 	ldr	w5, [x6, #208]
    fdcc3a70:	17ffffdb 	b	0xfdcc39dc
    fdcc3a74:	294dd4c0 	ldp	w0, w21, [x6, #108]
    fdcc3a78:	79009fe0 	strh	w0, [sp, #78]
    fdcc3a7c:	b94054ca 	ldr	w10, [x6, #84]
    fdcc3a80:	710005ff 	cmp	w15, #0x1
    fdcc3a84:	b94074d3 	ldr	w19, [x6, #116]
    fdcc3a88:	b940c8cd 	ldr	w13, [x6, #200]
    fdcc3a8c:	54000168 	b.hi	0xfdcc3ab8  // b.pmore
    fdcc3a90:	d2806100 	mov	x0, #0x308                 	// #776
    fdcc3a94:	d2815102 	mov	x2, #0xa88                 	// #2696
    fdcc3a98:	f2bfd000 	movk	x0, #0xfe80, lsl #16
    fdcc3a9c:	f2bfd002 	movk	x2, #0xfe80, lsl #16
    fdcc3aa0:	b9400001 	ldr	w1, [x0]
    fdcc3aa4:	32170021 	orr	w1, w1, #0x200
    fdcc3aa8:	b9000001 	str	w1, [x0]
    fdcc3aac:	91060000 	add	x0, x0, #0x180
    fdcc3ab0:	eb02001f 	cmp	x0, x2
    fdcc3ab4:	54ffff61 	b.ne	0xfdcc3aa0  // b.any
    fdcc3ab8:	79409fee 	ldrh	w14, [sp, #78]
    fdcc3abc:	710005ff 	cmp	w15, #0x1
    fdcc3ac0:	54000608 	b.hi	0xfdcc3b80  // b.pmore
    fdcc3ac4:	b940d8c0 	ldr	w0, [x6, #216]
    fdcc3ac8:	710001df 	cmp	w14, #0x0
    fdcc3acc:	1a9f0673 	csinc	w19, w19, wzr, eq	// eq = none
    fdcc3ad0:	1a9f02b5 	csel	w21, w21, wzr, eq	// eq = none
    fdcc3ad4:	6b00029f 	cmp	w20, w0
    fdcc3ad8:	54000549 	b.ls	0xfdcc3b80  // b.plast
    fdcc3adc:	b940c4cc 	ldr	w12, [x6, #196]
    fdcc3ae0:	d2801180 	mov	x0, #0x8c                  	// #140
    fdcc3ae4:	71000d3f 	cmp	w9, #0x3
    fdcc3ae8:	f2bfd000 	movk	x0, #0xfe80, lsl #16
    fdcc3aec:	b9400001 	ldr	w1, [x0]
    fdcc3af0:	321f0021 	orr	w1, w1, #0x2
    fdcc3af4:	b9000001 	str	w1, [x0]
    fdcc3af8:	b9400001 	ldr	w1, [x0]
    fdcc3afc:	121c7821 	and	w1, w1, #0xfffffff7
    fdcc3b00:	b9000001 	str	w1, [x0]
    fdcc3b04:	b9400001 	ldr	w1, [x0]
    fdcc3b08:	321d0021 	orr	w1, w1, #0x8
    fdcc3b0c:	b9000001 	str	w1, [x0]
    fdcc3b10:	b9400001 	ldr	w1, [x0]
    fdcc3b14:	121e7821 	and	w1, w1, #0xfffffffd
    fdcc3b18:	b9000001 	str	w1, [x0]
    fdcc3b1c:	54000360 	b.eq	0xfdcc3b88  // b.none
    fdcc3b20:	71001d3f 	cmp	w9, #0x7
    fdcc3b24:	54000360 	b.eq	0xfdcc3b90  // b.none
    fdcc3b28:	913d40c0 	add	x0, x6, #0xf50
    fdcc3b2c:	913a60c1 	add	x1, x6, #0xe98
    fdcc3b30:	7100213f 	cmp	w9, #0x8
    fdcc3b34:	9a800020 	csel	x0, x1, x0, eq	// eq = none
    fdcc3b38:	910143e1 	add	x1, sp, #0x50
    fdcc3b3c:	910123f1 	add	x17, sp, #0x48
    fdcc3b40:	d2800004 	mov	x4, #0x0                   	// #0
    fdcc3b44:	78716890 	ldrh	w16, [x4, x17]
    fdcc3b48:	34000290 	cbz	w16, 0xfdcc3b98
    fdcc3b4c:	9102c002 	add	x2, x0, #0xb0
    fdcc3b50:	aa0203e3 	mov	x3, x2
    fdcc3b54:	b940047e 	ldr	w30, [x3, #4]
    fdcc3b58:	6b1e021f 	cmp	w16, w30
    fdcc3b5c:	54000508 	b.hi	0xfdcc3bfc  // b.pmore
    fdcc3b60:	b9400063 	ldr	w3, [x3]
    fdcc3b64:	79000023 	strh	w3, [x1]
    fdcc3b68:	b9400443 	ldr	w3, [x2, #4]
    fdcc3b6c:	6b03021f 	cmp	w16, w3
    fdcc3b70:	540004e8 	b.hi	0xfdcc3c0c  // b.pmore
    fdcc3b74:	b9400042 	ldr	w2, [x2]
    fdcc3b78:	79001022 	strh	w2, [x1, #8]
    fdcc3b7c:	14000009 	b	0xfdcc3ba0
    fdcc3b80:	5280000c 	mov	w12, #0x0                   	// #0
    fdcc3b84:	17ffffd7 	b	0xfdcc3ae0
    fdcc3b88:	9134a0c0 	add	x0, x6, #0xd28
    fdcc3b8c:	17ffffeb 	b	0xfdcc3b38
    fdcc3b90:	913780c0 	add	x0, x6, #0xde0
    fdcc3b94:	17ffffe9 	b	0xfdcc3b38
    fdcc3b98:	7900003f 	strh	wzr, [x1]
    fdcc3b9c:	7900103f 	strh	wzr, [x1, #8]
    fdcc3ba0:	91000884 	add	x4, x4, #0x2
    fdcc3ba4:	91000821 	add	x1, x1, #0x2
    fdcc3ba8:	f100209f 	cmp	x4, #0x8
    fdcc3bac:	54fffcc1 	b.ne	0xfdcc3b44  // b.any
    fdcc3bb0:	710005ff 	cmp	w15, #0x1
    fdcc3bb4:	540003e9 	b.ls	0xfdcc3c30  // b.plast
    fdcc3bb8:	3400038e 	cbz	w14, 0xfdcc3c28
    fdcc3bbc:	34000315 	cbz	w21, 0xfdcc3c1c
    fdcc3bc0:	35000353 	cbnz	w19, 0xfdcc3c28
    fdcc3bc4:	0b0a05c0 	add	w0, w14, w10, lsl #1
    fdcc3bc8:	53185c03 	lsl	w3, w0, #8
    fdcc3bcc:	4b0a0000 	sub	w0, w0, w10
    fdcc3bd0:	1ac00863 	udiv	w3, w3, w0
    fdcc3bd4:	71000d3f 	cmp	w9, #0x3
    fdcc3bd8:	540027a0 	b.eq	0xfdcc40cc  // b.none
    fdcc3bdc:	340027c7 	cbz	w7, 0xfdcc40d4
    fdcc3be0:	79409be1 	ldrh	w1, [sp, #76]
    fdcc3be4:	0b0104e0 	add	w0, w7, w1, lsl #1
    fdcc3be8:	0b070021 	add	w1, w1, w7
    fdcc3bec:	53185c00 	lsl	w0, w0, #8
    fdcc3bf0:	1ac10804 	udiv	w4, w0, w1
    fdcc3bf4:	52800005 	mov	w5, #0x0                   	// #0
    fdcc3bf8:	14000018 	b	0xfdcc3c58
    fdcc3bfc:	eb03001f 	cmp	x0, x3
    fdcc3c00:	54fffb40 	b.eq	0xfdcc3b68  // b.none
    fdcc3c04:	d1002063 	sub	x3, x3, #0x8
    fdcc3c08:	17ffffd3 	b	0xfdcc3b54
    fdcc3c0c:	eb00005f 	cmp	x2, x0
    fdcc3c10:	54fffc80 	b.eq	0xfdcc3ba0  // b.none
    fdcc3c14:	d1002042 	sub	x2, x2, #0x8
    fdcc3c18:	17ffffd4 	b	0xfdcc3b68
    fdcc3c1c:	53185dc3 	lsl	w3, w14, #8
    fdcc3c20:	0b0a01c0 	add	w0, w14, w10
    fdcc3c24:	17ffffeb 	b	0xfdcc3bd0
    fdcc3c28:	52802003 	mov	w3, #0x100                 	// #256
    fdcc3c2c:	17ffffea 	b	0xfdcc3bd4
    fdcc3c30:	3400246e 	cbz	w14, 0xfdcc40bc
    fdcc3c34:	b940f0c3 	ldr	w3, [x6, #240]
    fdcc3c38:	53175863 	lsl	w3, w3, #9
    fdcc3c3c:	52807d00 	mov	w0, #0x3e8                 	// #1000
    fdcc3c40:	1ac00863 	udiv	w3, w3, w0
    fdcc3c44:	34002407 	cbz	w7, 0xfdcc40c4
    fdcc3c48:	b940f4c0 	ldr	w0, [x6, #244]
    fdcc3c4c:	53175800 	lsl	w0, w0, #9
    fdcc3c50:	52807d04 	mov	w4, #0x3e8                 	// #1000
    fdcc3c54:	1ac40804 	udiv	w4, w0, w4
    fdcc3c58:	97ffff2f 	bl	0xfdcc3914
    fdcc3c5c:	710005ff 	cmp	w15, #0x1
    fdcc3c60:	7940a3e2 	ldrh	w2, [sp, #80]
    fdcc3c64:	d2801e9e 	mov	x30, #0xf4                  	// #244
    fdcc3c68:	7940a7f1 	ldrh	w17, [sp, #82]
    fdcc3c6c:	f2bfd01e 	movk	x30, #0xfe80, lsl #16
    fdcc3c70:	7940b3f0 	ldrh	w16, [sp, #88]
    fdcc3c74:	7940b7e1 	ldrh	w1, [sp, #90]
    fdcc3c78:	2a102050 	orr	w16, w2, w16, lsl #8
    fdcc3c7c:	53103e22 	lsl	w2, w17, #16
    fdcc3c80:	2a016042 	orr	w2, w2, w1, lsl #24
    fdcc3c84:	2a100042 	orr	w2, w2, w16
    fdcc3c88:	b90003c2 	str	w2, [x30]
    fdcc3c8c:	d2801f02 	mov	x2, #0xf8                  	// #248
    fdcc3c90:	f2bfd002 	movk	x2, #0xfe80, lsl #16
    fdcc3c94:	54002268 	b.hi	0xfdcc40e0  // b.pmore
    fdcc3c98:	b9400041 	ldr	w1, [x2]
    fdcc3c9c:	1283e3f1 	mov	w17, #0xffffe0e0            	// #-7968
    fdcc3ca0:	0a110021 	and	w1, w1, w17
    fdcc3ca4:	2a100021 	orr	w1, w1, w16
    fdcc3ca8:	b9000041 	str	w1, [x2]
    fdcc3cac:	d2801e02 	mov	x2, #0xf0                  	// #240
    fdcc3cb0:	1283e3f0 	mov	w16, #0xffffe0e0            	// #-7968
    fdcc3cb4:	f2bfd002 	movk	x2, #0xfe80, lsl #16
    fdcc3cb8:	91002042 	add	x2, x2, #0x8
    fdcc3cbc:	b85f8041 	ldur	w1, [x2, #-8]
    fdcc3cc0:	0a100021 	and	w1, w1, w16
    fdcc3cc4:	2a170037 	orr	w23, w1, w23
    fdcc3cc8:	2a1622f7 	orr	w23, w23, w22, lsl #8
    fdcc3ccc:	b81f8057 	stur	w23, [x2, #-8]
    fdcc3cd0:	b9400041 	ldr	w1, [x2]
    fdcc3cd4:	12075821 	and	w1, w1, #0xfe00ffff
    fdcc3cd8:	350020e9 	cbnz	w9, 0xfdcc40f4
    fdcc3cdc:	32080021 	orr	w1, w1, #0x1000000
    fdcc3ce0:	b9000041 	str	w1, [x2]
    fdcc3ce4:	97ffff00 	bl	0xfdcc38e4
    fdcc3ce8:	2a2503e5 	mvn	w5, w5
    fdcc3cec:	35000055 	cbnz	w21, 0xfdcc3cf4
    fdcc3cf0:	7900afff 	strh	wzr, [sp, #86]
    fdcc3cf4:	35000053 	cbnz	w19, 0xfdcc3cfc
    fdcc3cf8:	7900bfff 	strh	wzr, [sp, #94]
    fdcc3cfc:	b94108c0 	ldr	w0, [x6, #264]
    fdcc3d00:	34001280 	cbz	w0, 0xfdcc3f50
    fdcc3d04:	52800a00 	mov	w0, #0x50                  	// #80
    fdcc3d08:	97fffade 	bl	0xfdcc2880
    fdcc3d0c:	52800900 	mov	w0, #0x48                  	// #72
    fdcc3d10:	97fffadc 	bl	0xfdcc2880
    fdcc3d14:	52800b20 	mov	w0, #0x59                  	// #89
    fdcc3d18:	97fffada 	bl	0xfdcc2880
    fdcc3d1c:	52800400 	mov	w0, #0x20                  	// #32
    fdcc3d20:	97fffad8 	bl	0xfdcc2880
    fdcc3d24:	52800c80 	mov	w0, #0x64                  	// #100
    fdcc3d28:	97fffad6 	bl	0xfdcc2880
    fdcc3d2c:	52800e40 	mov	w0, #0x72                  	// #114
    fdcc3d30:	97fffad4 	bl	0xfdcc2880
    fdcc3d34:	52800ec0 	mov	w0, #0x76                  	// #118
    fdcc3d38:	97fffad2 	bl	0xfdcc2880
    fdcc3d3c:	52800740 	mov	w0, #0x3a                  	// #58
    fdcc3d40:	97fffad0 	bl	0xfdcc2880
    fdcc3d44:	52800c60 	mov	w0, #0x63                  	// #99
    fdcc3d48:	97ffface 	bl	0xfdcc2880
    fdcc3d4c:	52800d80 	mov	w0, #0x6c                  	// #108
    fdcc3d50:	97fffacc 	bl	0xfdcc2880
    fdcc3d54:	52800d60 	mov	w0, #0x6b                  	// #107
    fdcc3d58:	97fffaca 	bl	0xfdcc2880
    fdcc3d5c:	52800740 	mov	w0, #0x3a                  	// #58
    fdcc3d60:	97fffac8 	bl	0xfdcc2880
    fdcc3d64:	794093e0 	ldrh	w0, [sp, #72]
    fdcc3d68:	97fffb08 	bl	0xfdcc2988
    fdcc3d6c:	52800580 	mov	w0, #0x2c                  	// #44
    fdcc3d70:	97fffac4 	bl	0xfdcc2880
    fdcc3d74:	52800c60 	mov	w0, #0x63                  	// #99
    fdcc3d78:	97fffac2 	bl	0xfdcc2880
    fdcc3d7c:	52800c20 	mov	w0, #0x61                  	// #97
    fdcc3d80:	97fffac0 	bl	0xfdcc2880
    fdcc3d84:	52800740 	mov	w0, #0x3a                  	// #58
    fdcc3d88:	97fffabe 	bl	0xfdcc2880
    fdcc3d8c:	794097e0 	ldrh	w0, [sp, #74]
    fdcc3d90:	97fffafe 	bl	0xfdcc2988
    fdcc3d94:	52800580 	mov	w0, #0x2c                  	// #44
    fdcc3d98:	97fffaba 	bl	0xfdcc2880
    fdcc3d9c:	52800880 	mov	w0, #0x44                  	// #68
    fdcc3da0:	97fffab8 	bl	0xfdcc2880
    fdcc3da4:	52800a20 	mov	w0, #0x51                  	// #81
    fdcc3da8:	97fffab6 	bl	0xfdcc2880
    fdcc3dac:	52800740 	mov	w0, #0x3a                  	// #58
    fdcc3db0:	97fffab4 	bl	0xfdcc2880
    fdcc3db4:	79409be0 	ldrh	w0, [sp, #76]
    fdcc3db8:	97fffaf4 	bl	0xfdcc2988
    fdcc3dbc:	52800580 	mov	w0, #0x2c                  	// #44
    fdcc3dc0:	97fffab0 	bl	0xfdcc2880
    fdcc3dc4:	52800de0 	mov	w0, #0x6f                  	// #111
    fdcc3dc8:	97fffaae 	bl	0xfdcc2880
    fdcc3dcc:	52800c80 	mov	w0, #0x64                  	// #100
    fdcc3dd0:	97fffaac 	bl	0xfdcc2880
    fdcc3dd4:	52800e80 	mov	w0, #0x74                  	// #116
    fdcc3dd8:	97fffaaa 	bl	0xfdcc2880
    fdcc3ddc:	52800740 	mov	w0, #0x3a                  	// #58
    fdcc3de0:	97fffaa8 	bl	0xfdcc2880
    fdcc3de4:	2a0e03e0 	mov	w0, w14
    fdcc3de8:	97fffae8 	bl	0xfdcc2988
    fdcc3dec:	52800140 	mov	w0, #0xa                   	// #10
    fdcc3df0:	97fffaa4 	bl	0xfdcc2880
    fdcc3df4:	52800ec0 	mov	w0, #0x76                  	// #118
    fdcc3df8:	97fffaa2 	bl	0xfdcc2880
    fdcc3dfc:	52800e40 	mov	w0, #0x72                  	// #114
    fdcc3e00:	97fffaa0 	bl	0xfdcc2880
    fdcc3e04:	52800ca0 	mov	w0, #0x65                  	// #101
    fdcc3e08:	97fffa9e 	bl	0xfdcc2880
    fdcc3e0c:	52800cc0 	mov	w0, #0x66                  	// #102
    fdcc3e10:	97fffa9c 	bl	0xfdcc2880
    fdcc3e14:	52800d20 	mov	w0, #0x69                  	// #105
    fdcc3e18:	97fffa9a 	bl	0xfdcc2880
    fdcc3e1c:	52800dc0 	mov	w0, #0x6e                  	// #110
    fdcc3e20:	97fffa98 	bl	0xfdcc2880
    fdcc3e24:	52800dc0 	mov	w0, #0x6e                  	// #110
    fdcc3e28:	97fffa96 	bl	0xfdcc2880
    fdcc3e2c:	52800ca0 	mov	w0, #0x65                  	// #101
    fdcc3e30:	97fffa94 	bl	0xfdcc2880
    fdcc3e34:	52800e40 	mov	w0, #0x72                  	// #114
    fdcc3e38:	97fffa92 	bl	0xfdcc2880
    fdcc3e3c:	52800740 	mov	w0, #0x3a                  	// #58
    fdcc3e40:	97fffa90 	bl	0xfdcc2880
    fdcc3e44:	52800c8e 	mov	w14, #0x64                  	// #100
    fdcc3e48:	1b0e7c60 	mul	w0, w3, w14
    fdcc3e4c:	53097c00 	lsr	w0, w0, #9
    fdcc3e50:	97ffface 	bl	0xfdcc2988
    fdcc3e54:	528004a0 	mov	w0, #0x25                  	// #37
    fdcc3e58:	97fffa8a 	bl	0xfdcc2880
    fdcc3e5c:	52800580 	mov	w0, #0x2c                  	// #44
    fdcc3e60:	97fffa88 	bl	0xfdcc2880
    fdcc3e64:	52800400 	mov	w0, #0x20                  	// #32
    fdcc3e68:	97fffa86 	bl	0xfdcc2880
    fdcc3e6c:	52800ec0 	mov	w0, #0x76                  	// #118
    fdcc3e70:	97fffa84 	bl	0xfdcc2880
    fdcc3e74:	52800e40 	mov	w0, #0x72                  	// #114
    fdcc3e78:	97fffa82 	bl	0xfdcc2880
    fdcc3e7c:	52800ca0 	mov	w0, #0x65                  	// #101
    fdcc3e80:	97fffa80 	bl	0xfdcc2880
    fdcc3e84:	52800cc0 	mov	w0, #0x66                  	// #102
    fdcc3e88:	97fffa7e 	bl	0xfdcc2880
    fdcc3e8c:	52800de0 	mov	w0, #0x6f                  	// #111
    fdcc3e90:	97fffa7c 	bl	0xfdcc2880
    fdcc3e94:	52800ea0 	mov	w0, #0x75                  	// #117
    fdcc3e98:	97fffa7a 	bl	0xfdcc2880
    fdcc3e9c:	52800e80 	mov	w0, #0x74                  	// #116
    fdcc3ea0:	97fffa78 	bl	0xfdcc2880
    fdcc3ea4:	52800740 	mov	w0, #0x3a                  	// #58
    fdcc3ea8:	97fffa76 	bl	0xfdcc2880
    fdcc3eac:	1b0e7c80 	mul	w0, w4, w14
    fdcc3eb0:	53097c00 	lsr	w0, w0, #9
    fdcc3eb4:	97fffab5 	bl	0xfdcc2988
    fdcc3eb8:	528004a0 	mov	w0, #0x25                  	// #37
    fdcc3ebc:	97fffa71 	bl	0xfdcc2880
    fdcc3ec0:	52800140 	mov	w0, #0xa                   	// #10
    fdcc3ec4:	97fffa6f 	bl	0xfdcc2880
    fdcc3ec8:	2a0e03e0 	mov	w0, w14
    fdcc3ecc:	97fffa6d 	bl	0xfdcc2880
    fdcc3ed0:	52800e40 	mov	w0, #0x72                  	// #114
    fdcc3ed4:	97fffa6b 	bl	0xfdcc2880
    fdcc3ed8:	52800c20 	mov	w0, #0x61                  	// #97
    fdcc3edc:	97fffa69 	bl	0xfdcc2880
    fdcc3ee0:	52800da0 	mov	w0, #0x6d                  	// #109
    fdcc3ee4:	97fffa67 	bl	0xfdcc2880
    fdcc3ee8:	52800400 	mov	w0, #0x20                  	// #32
    fdcc3eec:	97fffa65 	bl	0xfdcc2880
    fdcc3ef0:	2a0e03e0 	mov	w0, w14
    fdcc3ef4:	97fffa63 	bl	0xfdcc2880
    fdcc3ef8:	52800e40 	mov	w0, #0x72                  	// #114
    fdcc3efc:	97fffa61 	bl	0xfdcc2880
    fdcc3f00:	52800ec0 	mov	w0, #0x76                  	// #118
    fdcc3f04:	97fffa5f 	bl	0xfdcc2880
    fdcc3f08:	52800740 	mov	w0, #0x3a                  	// #58
    fdcc3f0c:	97fffa5d 	bl	0xfdcc2880
    fdcc3f10:	2a0a03e0 	mov	w0, w10
    fdcc3f14:	97fffa9d 	bl	0xfdcc2988
    fdcc3f18:	52800580 	mov	w0, #0x2c                  	// #44
    fdcc3f1c:	97fffa59 	bl	0xfdcc2880
    fdcc3f20:	52800de0 	mov	w0, #0x6f                  	// #111
    fdcc3f24:	97fffa57 	bl	0xfdcc2880
    fdcc3f28:	2a0e03e0 	mov	w0, w14
    fdcc3f2c:	97fffa55 	bl	0xfdcc2880
    fdcc3f30:	52800e80 	mov	w0, #0x74                  	// #116
    fdcc3f34:	97fffa53 	bl	0xfdcc2880
    fdcc3f38:	52800740 	mov	w0, #0x3a                  	// #58
    fdcc3f3c:	97fffa51 	bl	0xfdcc2880
    fdcc3f40:	2a0703e0 	mov	w0, w7
    fdcc3f44:	97fffa91 	bl	0xfdcc2988
    fdcc3f48:	52800140 	mov	w0, #0xa                   	// #10
    fdcc3f4c:	97fffa4d 	bl	0xfdcc2880
    fdcc3f50:	7940abe0 	ldrh	w0, [sp, #84]
    fdcc3f54:	53092063 	lsl	w3, w3, #23
    fdcc3f58:	7940bbe2 	ldrh	w2, [sp, #92]
    fdcc3f5c:	531900a5 	ubfiz	w5, w5, #7, #1
    fdcc3f60:	7940afe1 	ldrh	w1, [sp, #86]
    fdcc3f64:	2a122063 	orr	w3, w3, w18, lsl #8
    fdcc3f68:	53103c00 	lsl	w0, w0, #16
    fdcc3f6c:	2a050063 	orr	w3, w3, w5
    fdcc3f70:	2a026002 	orr	w2, w0, w2, lsl #24
    fdcc3f74:	7940bfe0 	ldrh	w0, [sp, #94]
    fdcc3f78:	529c0fee 	mov	w14, #0xe07f                	// #57471
    fdcc3f7c:	d2815085 	mov	x5, #0xa84                 	// #2692
    fdcc3f80:	72a00fee 	movk	w14, #0x7f, lsl #16
    fdcc3f84:	f2bfd005 	movk	x5, #0xfe80, lsl #16
    fdcc3f88:	2a002020 	orr	w0, w1, w0, lsl #8
    fdcc3f8c:	2a000042 	orr	w2, w2, w0
    fdcc3f90:	d2806080 	mov	x0, #0x304                 	// #772
    fdcc3f94:	f2bfd000 	movk	x0, #0xfe80, lsl #16
    fdcc3f98:	b9000002 	str	w2, [x0]
    fdcc3f9c:	b85fc001 	ldur	w1, [x0, #-4]
    fdcc3fa0:	0a0e0021 	and	w1, w1, w14
    fdcc3fa4:	2a030021 	orr	w1, w1, w3
    fdcc3fa8:	b81fc001 	stur	w1, [x0, #-4]
    fdcc3fac:	91060000 	add	x0, x0, #0x180
    fdcc3fb0:	eb05001f 	cmp	x0, x5
    fdcc3fb4:	54ffff21 	b.ne	0xfdcc3f98  // b.any
    fdcc3fb8:	d2801280 	mov	x0, #0x94                  	// #148
    fdcc3fbc:	f2bfd000 	movk	x0, #0xfe80, lsl #16
    fdcc3fc0:	b9400001 	ldr	w1, [x0]
    fdcc3fc4:	32190021 	orr	w1, w1, #0x80
    fdcc3fc8:	b9000001 	str	w1, [x0]
    fdcc3fcc:	b9400001 	ldr	w1, [x0]
    fdcc3fd0:	12187821 	and	w1, w1, #0xffffff7f
    fdcc3fd4:	b9000001 	str	w1, [x0]
    fdcc3fd8:	350009e9 	cbnz	w9, 0xfdcc4114
    fdcc3fdc:	1143f902 	add	w2, w8, #0xfe, lsl #12
    fdcc3fe0:	7100011f 	cmp	w8, #0x0
    fdcc3fe4:	11094442 	add	w2, w2, #0x251
    fdcc3fe8:	d2801d80 	mov	x0, #0xec                  	// #236
    fdcc3fec:	f2bfc4a0 	movk	x0, #0xfe25, lsl #16
    fdcc3ff0:	53144c42 	lsl	w2, w2, #12
    fdcc3ff4:	1103b042 	add	w2, w2, #0xec
    fdcc3ff8:	9a801042 	csel	x2, x2, x0, ne	// ne = any
    fdcc3ffc:	5284e200 	mov	w0, #0x2710                	// #10000
    fdcc4000:	1b007c80 	mul	w0, w4, w0
    fdcc4004:	b9400041 	ldr	w1, [x2]
    fdcc4008:	12196025 	and	w5, w1, #0xffffff80
    fdcc400c:	52933fe1 	mov	w1, #0x99ff                	// #39423
    fdcc4010:	72a00741 	movk	w1, #0x3a, lsl #16
    fdcc4014:	53097c03 	lsr	w3, w0, #9
    fdcc4018:	6b01001f 	cmp	w0, w1
    fdcc401c:	52800821 	mov	w1, #0x41                  	// #65
    fdcc4020:	540006e9 	b.ls	0xfdcc40fc  // b.plast
    fdcc4024:	1282ede4 	mov	w4, #0xffffe890            	// #-6000
    fdcc4028:	0b040063 	add	w3, w3, w4
    fdcc402c:	1ac10861 	udiv	w1, w3, w1
    fdcc4030:	2a050021 	orr	w1, w1, w5
    fdcc4034:	97fff591 	bl	0xfdcc1678
    fdcc4038:	b9000041 	str	w1, [x2]
    fdcc403c:	97fff593 	bl	0xfdcc1688
    fdcc4040:	1143f902 	add	w2, w8, #0xfe, lsl #12
    fdcc4044:	7100011f 	cmp	w8, #0x0
    fdcc4048:	11094442 	add	w2, w2, #0x251
    fdcc404c:	d2801b80 	mov	x0, #0xdc                  	// #220
    fdcc4050:	f2bfc4a0 	movk	x0, #0xfe25, lsl #16
    fdcc4054:	53144c42 	lsl	w2, w2, #12
    fdcc4058:	11037042 	add	w2, w2, #0xdc
    fdcc405c:	9a801042 	csel	x2, x2, x0, ne	// ne = any
    fdcc4060:	71000d3f 	cmp	w9, #0x3
    fdcc4064:	b9400043 	ldr	w3, [x2]
    fdcc4068:	54000b00 	b.eq	0xfdcc41c8  // b.none
    fdcc406c:	35000e49 	cbnz	w9, 0xfdcc4234
    fdcc4070:	529f1f21 	mov	w1, #0xf8f9                	// #63737
    fdcc4074:	7100c15f 	cmp	w10, #0x30
    fdcc4078:	0a010061 	and	w1, w3, w1
    fdcc407c:	54000041 	b.ne	0xfdcc4084  // b.any
    fdcc4080:	321f0021 	orr	w1, w1, #0x2
    fdcc4084:	34000087 	cbz	w7, 0xfdcc4094
    fdcc4088:	710088ff 	cmp	w7, #0x22
    fdcc408c:	54000be8 	b.hi	0xfdcc4208  // b.pmore
    fdcc4090:	32180821 	orr	w1, w1, #0x700
    fdcc4094:	97fff579 	bl	0xfdcc1678
    fdcc4098:	b9400040 	ldr	w0, [x2]
    fdcc409c:	12103c00 	and	w0, w0, #0xffff0000
    fdcc40a0:	2a010001 	orr	w1, w0, w1
    fdcc40a4:	b9000041 	str	w1, [x2]
    fdcc40a8:	a94153f3 	ldp	x19, x20, [sp, #16]
    fdcc40ac:	a9425bf5 	ldp	x21, x22, [sp, #32]
    fdcc40b0:	f9401bf7 	ldr	x23, [sp, #48]
    fdcc40b4:	a8c67bfd 	ldp	x29, x30, [sp], #96
    fdcc40b8:	17fff574 	b	0xfdcc1688
    fdcc40bc:	b940fcc3 	ldr	w3, [x6, #252]
    fdcc40c0:	17fffede 	b	0xfdcc3c38
    fdcc40c4:	b94100c0 	ldr	w0, [x6, #256]
    fdcc40c8:	17fffee1 	b	0xfdcc3c4c
    fdcc40cc:	52802004 	mov	w4, #0x100                 	// #256
    fdcc40d0:	17fffec9 	b	0xfdcc3bf4
    fdcc40d4:	52800005 	mov	w5, #0x0                   	// #0
    fdcc40d8:	52802004 	mov	w4, #0x100                 	// #256
    fdcc40dc:	17fffedf 	b	0xfdcc3c58
    fdcc40e0:	b9400050 	ldr	w16, [x2]
    fdcc40e4:	2a012221 	orr	w1, w17, w1, lsl #8
    fdcc40e8:	1283e3f1 	mov	w17, #0xffffe0e0            	// #-7968
    fdcc40ec:	0a110210 	and	w16, w16, w17
    fdcc40f0:	17fffeed 	b	0xfdcc3ca4
    fdcc40f4:	2a044021 	orr	w1, w1, w4, lsl #16
    fdcc40f8:	17fffefa 	b	0xfdcc3ce0
    fdcc40fc:	12823260 	mov	w0, #0xffffee6c            	// #-4500
    fdcc4100:	0b000063 	add	w3, w3, w0
    fdcc4104:	1ac10861 	udiv	w1, w3, w1
    fdcc4108:	2a050021 	orr	w1, w1, w5
    fdcc410c:	321a0021 	orr	w1, w1, #0x40
    fdcc4110:	17ffffc9 	b	0xfdcc4034
    fdcc4114:	7100193f 	cmp	w9, #0x6
    fdcc4118:	540000c0 	b.eq	0xfdcc4130  // b.none
    fdcc411c:	710005ff 	cmp	w15, #0x1
    fdcc4120:	540004a9 	b.ls	0xfdcc41b4  // b.plast
    fdcc4124:	71000d3f 	cmp	w9, #0x3
    fdcc4128:	54fff8c0 	b.eq	0xfdcc4040  // b.none
    fdcc412c:	14000003 	b	0xfdcc4138
    fdcc4130:	52800c80 	mov	w0, #0x64                  	// #100
    fdcc4134:	97fff3b3 	bl	0xfdcc1000
    fdcc4138:	1143f900 	add	w0, w8, #0xfe, lsl #12
    fdcc413c:	7100011f 	cmp	w8, #0x0
    fdcc4140:	11094400 	add	w0, w0, #0x251
    fdcc4144:	d2801c01 	mov	x1, #0xe0                  	// #224
    fdcc4148:	f2bfc4a1 	movk	x1, #0xfe25, lsl #16
    fdcc414c:	53144c00 	lsl	w0, w0, #12
    fdcc4150:	11038000 	add	w0, w0, #0xe0
    fdcc4154:	9a811000 	csel	x0, x0, x1, ne	// ne = any
    fdcc4158:	b9400003 	ldr	w3, [x0]
    fdcc415c:	53107c63 	lsr	w3, w3, #16
    fdcc4160:	7100193f 	cmp	w9, #0x6
    fdcc4164:	54000a01 	b.ne	0xfdcc42a4  // b.any
    fdcc4168:	7100895f 	cmp	w10, #0x22
    fdcc416c:	54000688 	b.hi	0xfdcc423c  // b.pmore
    fdcc4170:	32000063 	orr	w3, w3, #0x1
    fdcc4174:	35000847 	cbnz	w7, 0xfdcc427c
    fdcc4178:	b90ca8df 	str	wzr, [x6, #3240]
    fdcc417c:	97fff53f 	bl	0xfdcc1678
    fdcc4180:	1143f900 	add	w0, w8, #0xfe, lsl #12
    fdcc4184:	11094400 	add	w0, w0, #0x251
    fdcc4188:	7100011f 	cmp	w8, #0x0
    fdcc418c:	d2801c01 	mov	x1, #0xe0                  	// #224
    fdcc4190:	53144c00 	lsl	w0, w0, #12
    fdcc4194:	f2bfc4a1 	movk	x1, #0xfe25, lsl #16
    fdcc4198:	11038000 	add	w0, w0, #0xe0
    fdcc419c:	9a811000 	csel	x0, x0, x1, ne	// ne = any
    fdcc41a0:	b9400001 	ldr	w1, [x0]
    fdcc41a4:	12003c21 	and	w1, w1, #0xffff
    fdcc41a8:	2a034023 	orr	w3, w1, w3, lsl #16
    fdcc41ac:	b9000003 	str	w3, [x0]
    fdcc41b0:	17ffffbe 	b	0xfdcc40a8
    fdcc41b4:	2a0903e2 	mov	w2, w9
    fdcc41b8:	2a0803e1 	mov	w1, w8
    fdcc41bc:	2a1403e0 	mov	w0, w20
    fdcc41c0:	97fff53b 	bl	0xfdcc16ac
    fdcc41c4:	17ffffdd 	b	0xfdcc4138
    fdcc41c8:	529fb321 	mov	w1, #0xfd99                	// #64921
    fdcc41cc:	7100895f 	cmp	w10, #0x22
    fdcc41d0:	0a010061 	and	w1, w3, w1
    fdcc41d4:	54000041 	b.ne	0xfdcc41dc  // b.any
    fdcc41d8:	321f0021 	orr	w1, w1, #0x2
    fdcc41dc:	34fff5c7 	cbz	w7, 0xfdcc4094
    fdcc41e0:	7100a0ff 	cmp	w7, #0x28
    fdcc41e4:	54000088 	b.hi	0xfdcc41f4  // b.pmore
    fdcc41e8:	52800880 	mov	w0, #0x44                  	// #68
    fdcc41ec:	2a000021 	orr	w1, w1, w0
    fdcc41f0:	17ffffa9 	b	0xfdcc4094
    fdcc41f4:	321e0020 	orr	w0, w1, #0x4
    fdcc41f8:	321a0021 	orr	w1, w1, #0x40
    fdcc41fc:	7100f0ff 	cmp	w7, #0x3c
    fdcc4200:	1a808021 	csel	w1, w1, w0, hi	// hi = pmore
    fdcc4204:	17ffffa4 	b	0xfdcc4094
    fdcc4208:	7100a0ff 	cmp	w7, #0x28
    fdcc420c:	54000068 	b.hi	0xfdcc4218  // b.pmore
    fdcc4210:	32180421 	orr	w1, w1, #0x300
    fdcc4214:	17ffffa0 	b	0xfdcc4094
    fdcc4218:	7100c0ff 	cmp	w7, #0x30
    fdcc421c:	54000068 	b.hi	0xfdcc4228  // b.pmore
    fdcc4220:	5280a000 	mov	w0, #0x500                 	// #1280
    fdcc4224:	17fffff2 	b	0xfdcc41ec
    fdcc4228:	32180020 	orr	w0, w1, #0x100
    fdcc422c:	32170021 	orr	w1, w1, #0x200
    fdcc4230:	17fffff3 	b	0xfdcc41fc
    fdcc4234:	12003c63 	and	w3, w3, #0xffff
    fdcc4238:	17ffffca 	b	0xfdcc4160
    fdcc423c:	7100a15f 	cmp	w10, #0x28
    fdcc4240:	54000068 	b.hi	0xfdcc424c  // b.pmore
    fdcc4244:	321f0063 	orr	w3, w3, #0x2
    fdcc4248:	17ffffcb 	b	0xfdcc4174
    fdcc424c:	7100c15f 	cmp	w10, #0x30
    fdcc4250:	54000068 	b.hi	0xfdcc425c  // b.pmore
    fdcc4254:	32000463 	orr	w3, w3, #0x3
    fdcc4258:	17ffffc7 	b	0xfdcc4174
    fdcc425c:	7100f15f 	cmp	w10, #0x3c
    fdcc4260:	54000068 	b.hi	0xfdcc426c  // b.pmore
    fdcc4264:	321e0063 	orr	w3, w3, #0x4
    fdcc4268:	17ffffc3 	b	0xfdcc4174
    fdcc426c:	7101415f 	cmp	w10, #0x50
    fdcc4270:	54fff828 	b.hi	0xfdcc4174  // b.pmore
    fdcc4274:	321f0463 	orr	w3, w3, #0x6
    fdcc4278:	17ffffbf 	b	0xfdcc4174
    fdcc427c:	7100f0ff 	cmp	w7, #0x3c
    fdcc4280:	54000088 	b.hi	0xfdcc4290  // b.pmore
    fdcc4284:	52800020 	mov	w0, #0x1                   	// #1
    fdcc4288:	b90ca8c0 	str	w0, [x6, #3240]
    fdcc428c:	17ffffbc 	b	0xfdcc417c
    fdcc4290:	7101e4ff 	cmp	w7, #0x79
    fdcc4294:	52800040 	mov	w0, #0x2                   	// #2
    fdcc4298:	52800061 	mov	w1, #0x3                   	// #3
    fdcc429c:	1a813000 	csel	w0, w0, w1, cc	// cc = lo, ul, last
    fdcc42a0:	17fffffa 	b	0xfdcc4288
    fdcc42a4:	34000207 	cbz	w7, 0xfdcc42e4
    fdcc42a8:	97fff4f4 	bl	0xfdcc1678
    fdcc42ac:	1143f900 	add	w0, w8, #0xfe, lsl #12
    fdcc42b0:	11094400 	add	w0, w0, #0x251
    fdcc42b4:	7100011f 	cmp	w8, #0x0
    fdcc42b8:	d2801e81 	mov	x1, #0xf4                  	// #244
    fdcc42bc:	5280a002 	mov	w2, #0x500                 	// #1280
    fdcc42c0:	53144c00 	lsl	w0, w0, #12
    fdcc42c4:	f2bfc4a1 	movk	x1, #0xfe25, lsl #16
    fdcc42c8:	1103d000 	add	w0, w0, #0xf4
    fdcc42cc:	9a811000 	csel	x0, x0, x1, ne	// ne = any
    fdcc42d0:	b9400001 	ldr	w1, [x0]
    fdcc42d4:	12146c21 	and	w1, w1, #0xfffff0ff
    fdcc42d8:	2a020021 	orr	w1, w1, w2
    fdcc42dc:	b9000001 	str	w1, [x0]
    fdcc42e0:	97fff4ea 	bl	0xfdcc1688
    fdcc42e4:	12800721 	mov	w1, #0xffffffc6            	// #-58
    fdcc42e8:	0a010063 	and	w3, w3, w1
    fdcc42ec:	2a0d0063 	orr	w3, w3, w13
    fdcc42f0:	2a0a03e0 	mov	w0, w10
    fdcc42f4:	97fff55b 	bl	0xfdcc1860
    fdcc42f8:	1143f902 	add	w2, w8, #0xfe, lsl #12
    fdcc42fc:	7100001f 	cmp	w0, #0x0
    fdcc4300:	11094442 	add	w2, w2, #0x251
    fdcc4304:	52800101 	mov	w1, #0x8                   	// #8
    fdcc4308:	1a811000 	csel	w0, w0, w1, ne	// ne = any
    fdcc430c:	53144c42 	lsl	w2, w2, #12
    fdcc4310:	7100011f 	cmp	w8, #0x0
    fdcc4314:	2a000c63 	orr	w3, w3, w0, lsl #3
    fdcc4318:	1103a041 	add	w1, w2, #0xe8
    fdcc431c:	d2801d00 	mov	x0, #0xe8                  	// #232
    fdcc4320:	12800ee5 	mov	w5, #0xffffff88            	// #-120
    fdcc4324:	f2bfc4a0 	movk	x0, #0xfe25, lsl #16
    fdcc4328:	9a801021 	csel	x1, x1, x0, ne	// ne = any
    fdcc432c:	2a0703e0 	mov	w0, w7
    fdcc4330:	b9400024 	ldr	w4, [x1]
    fdcc4334:	0a4440a5 	and	w5, w5, w4, lsr #16
    fdcc4338:	97fff54a 	bl	0xfdcc1860
    fdcc433c:	2a0003e4 	mov	w4, w0
    fdcc4340:	2a0c03e0 	mov	w0, w12
    fdcc4344:	97fff547 	bl	0xfdcc1860
    fdcc4348:	2a001084 	orr	w4, w4, w0, lsl #4
    fdcc434c:	2a050084 	orr	w4, w4, w5
    fdcc4350:	97fff4ca 	bl	0xfdcc1678
    fdcc4354:	b9400020 	ldr	w0, [x1]
    fdcc4358:	12003c00 	and	w0, w0, #0xffff
    fdcc435c:	2a044004 	orr	w4, w0, w4, lsl #16
    fdcc4360:	b9000024 	str	w4, [x1]
    fdcc4364:	97fff4c9 	bl	0xfdcc1688
    fdcc4368:	1103b041 	add	w1, w2, #0xec
    fdcc436c:	7100011f 	cmp	w8, #0x0
    fdcc4370:	d2801d80 	mov	x0, #0xec                  	// #236
    fdcc4374:	f2bfc4a0 	movk	x0, #0xfe25, lsl #16
    fdcc4378:	9a801021 	csel	x1, x1, x0, ne	// ne = any
    fdcc437c:	79409fe0 	ldrh	w0, [sp, #78]
    fdcc4380:	b9400022 	ldr	w2, [x1]
    fdcc4384:	53107c42 	lsr	w2, w2, #16
    fdcc4388:	121d7045 	and	w5, w2, #0xfffffff8
    fdcc438c:	97fff535 	bl	0xfdcc1860
    fdcc4390:	b940ecc2 	ldr	w2, [x6, #236]
    fdcc4394:	295c9cc4 	ldp	w4, w7, [x6, #228]
    fdcc4398:	2a021402 	orr	w2, w0, w2, lsl #5
    fdcc439c:	b9401160 	ldr	w0, [x11, #16]
    fdcc43a0:	531c6ce7 	lsl	w7, w7, #4
    fdcc43a4:	2a040ce4 	orr	w4, w7, w4, lsl #3
    fdcc43a8:	2a020082 	orr	w2, w4, w2
    fdcc43ac:	2a050042 	orr	w2, w2, w5
    fdcc43b0:	35000040 	cbnz	w0, 0xfdcc43b8
    fdcc43b4:	32190042 	orr	w2, w2, #0x80
    fdcc43b8:	97fff4b0 	bl	0xfdcc1678
    fdcc43bc:	b9400020 	ldr	w0, [x1]
    fdcc43c0:	12003c00 	and	w0, w0, #0xffff
    fdcc43c4:	2a024002 	orr	w2, w0, w2, lsl #16
    fdcc43c8:	b9000022 	str	w2, [x1]
    fdcc43cc:	97fff4af 	bl	0xfdcc1688
    fdcc43d0:	17ffff6b 	b	0xfdcc417c
    fdcc43d4:	a9bd7bfd 	stp	x29, x30, [sp, #-48]!
    fdcc43d8:	2a0203ed 	mov	w13, w2
    fdcc43dc:	910003fd 	mov	x29, sp
    fdcc43e0:	a90153f3 	stp	x19, x20, [sp, #16]
    fdcc43e4:	2a0003f3 	mov	w19, w0
    fdcc43e8:	2a0103f4 	mov	w20, w1
    fdcc43ec:	35000121 	cbnz	w1, 0xfdcc4410
    fdcc43f0:	f0000000 	adrp	x0, 0xfdcc7000
    fdcc43f4:	91000000 	add	x0, x0, #0x0
    fdcc43f8:	b940b401 	ldr	w1, [x0, #180]
    fdcc43fc:	b90023e1 	str	w1, [sp, #32]
    fdcc4400:	b940b801 	ldr	w1, [x0, #184]
    fdcc4404:	b90027e1 	str	w1, [sp, #36]
    fdcc4408:	29578001 	ldp	w1, w0, [x0, #188]
    fdcc440c:	290503e1 	stp	w1, w0, [sp, #40]
    fdcc4410:	d2bfd000 	mov	x0, #0xfe800000            	// #4269801472
    fdcc4414:	b940000e 	ldr	w14, [x0]
    fdcc4418:	d2800e00 	mov	x0, #0x70                  	// #112
    fdcc441c:	f2bfc4a0 	movk	x0, #0xfe25, lsl #16
    fdcc4420:	b9400000 	ldr	w0, [x0]
    fdcc4424:	35000e94 	cbnz	w20, 0xfdcc45f4
    fdcc4428:	7100001f 	cmp	w0, #0x0
    fdcc442c:	1a9f17ef 	cset	w15, eq	// eq = none
    fdcc4430:	97fffd39 	bl	0xfdcc3914
    fdcc4434:	2a0003f2 	mov	w18, w0
    fdcc4438:	3400014f 	cbz	w15, 0xfdcc4460
    fdcc443c:	d2801481 	mov	x1, #0xa4                  	// #164
    fdcc4440:	52b18002 	mov	w2, #0x8c000000            	// #-1946157056
    fdcc4444:	f2bfd001 	movk	x1, #0xfe80, lsl #16
    fdcc4448:	b9400020 	ldr	w0, [x1]
    fdcc444c:	0a020000 	and	w0, w0, w2
    fdcc4450:	b9000020 	str	w0, [x1]
    fdcc4454:	2a1403e0 	mov	w0, w20
    fdcc4458:	52800021 	mov	w1, #0x1                   	// #1
    fdcc445c:	97fff3c3 	bl	0xfdcc1368
    fdcc4460:	d2800500 	mov	x0, #0x28                  	// #40
    fdcc4464:	d2801504 	mov	x4, #0xa8                  	// #168
    fdcc4468:	f2bfc4a0 	movk	x0, #0xfe25, lsl #16
    fdcc446c:	f2bfd004 	movk	x4, #0xfe80, lsl #16
    fdcc4470:	b9400001 	ldr	w1, [x0]
    fdcc4474:	72000421 	ands	w1, w1, #0x3
    fdcc4478:	1143f820 	add	w0, w1, #0xfe, lsl #12
    fdcc447c:	d2800c81 	mov	x1, #0x64                  	// #100
    fdcc4480:	11094400 	add	w0, w0, #0x251
    fdcc4484:	f2bfc4a1 	movk	x1, #0xfe25, lsl #16
    fdcc4488:	53144c00 	lsl	w0, w0, #12
    fdcc448c:	11019000 	add	w0, w0, #0x64
    fdcc4490:	9a811000 	csel	x0, x0, x1, ne	// ne = any
    fdcc4494:	b9400001 	ldr	w1, [x0]
    fdcc4498:	b9400002 	ldr	w2, [x0]
    fdcc449c:	b9400083 	ldr	w3, [x4]
    fdcc44a0:	d3506c20 	ubfx	x0, x1, #16, #12
    fdcc44a4:	12000c61 	and	w1, w3, #0xf
    fdcc44a8:	2a005c20 	orr	w0, w1, w0, lsl #23
    fdcc44ac:	53182441 	ubfiz	w1, w2, #8, #10
    fdcc44b0:	32190021 	orr	w1, w1, #0x80
    fdcc44b4:	2a010000 	orr	w0, w0, w1
    fdcc44b8:	d2801281 	mov	x1, #0x94                  	// #148
    fdcc44bc:	f2bfd001 	movk	x1, #0xfe80, lsl #16
    fdcc44c0:	b9000080 	str	w0, [x4]
    fdcc44c4:	52800020 	mov	w0, #0x1                   	// #1
    fdcc44c8:	b9400022 	ldr	w2, [x1]
    fdcc44cc:	1ad32000 	lsl	w0, w0, w19
    fdcc44d0:	2a2003e0 	mvn	w0, w0
    fdcc44d4:	33180c02 	bfi	w2, w0, #8, #4
    fdcc44d8:	b9000022 	str	w2, [x1]
    fdcc44dc:	51001e80 	sub	w0, w20, #0x7
    fdcc44e0:	7100041f 	cmp	w0, #0x1
    fdcc44e4:	540008c8 	b.hi	0xfdcc45fc  // b.pmore
    fdcc44e8:	35000cef 	cbnz	w15, 0xfdcc4684
    fdcc44ec:	d2801300 	mov	x0, #0x98                  	// #152
    fdcc44f0:	528b4781 	mov	w1, #0x5a3c                	// #23100
    fdcc44f4:	f2bfd000 	movk	x0, #0xfe80, lsl #16
    fdcc44f8:	72aaaaa1 	movk	w1, #0x5555, lsl #16
    fdcc44fc:	b9000001 	str	w1, [x0]
    fdcc4500:	d2806c00 	mov	x0, #0x360                 	// #864
    fdcc4504:	d2815c02 	mov	x2, #0xae0                 	// #2784
    fdcc4508:	f2bfd000 	movk	x0, #0xfe80, lsl #16
    fdcc450c:	f2bfd002 	movk	x2, #0xfe80, lsl #16
    fdcc4510:	b9400001 	ldr	w1, [x0]
    fdcc4514:	12016021 	and	w1, w1, #0x80ffffff
    fdcc4518:	32081021 	orr	w1, w1, #0x1f000000
    fdcc451c:	b9000001 	str	w1, [x0]
    fdcc4520:	91060000 	add	x0, x0, #0x180
    fdcc4524:	eb02001f 	cmp	x0, x2
    fdcc4528:	54ffff41 	b.ne	0xfdcc4510  // b.any
    fdcc452c:	d2801282 	mov	x2, #0x94                  	// #148
    fdcc4530:	710001ff 	cmp	w15, #0x0
    fdcc4534:	f2bfd002 	movk	x2, #0xfe80, lsl #16
    fdcc4538:	52880001 	mov	w1, #0x4000                	// #16384
    fdcc453c:	d2801004 	mov	x4, #0x80                  	// #128
    fdcc4540:	1a9f1421 	csinc	w1, w1, wzr, ne	// ne = any
    fdcc4544:	b9400040 	ldr	w0, [x2]
    fdcc4548:	d2803e05 	mov	x5, #0x1f0                 	// #496
    fdcc454c:	9a9f1484 	csinc	x4, x4, xzr, ne	// ne = any
    fdcc4550:	52807d23 	mov	w3, #0x3e9                 	// #1001
    fdcc4554:	2a010000 	orr	w0, w0, w1
    fdcc4558:	f2bfd005 	movk	x5, #0xfe80, lsl #16
    fdcc455c:	b9000040 	str	w0, [x2]
    fdcc4560:	b94000a0 	ldr	w0, [x5]
    fdcc4564:	ea00009f 	tst	x4, x0
    fdcc4568:	54000b01 	b.ne	0xfdcc46c8  // b.any
    fdcc456c:	52800020 	mov	w0, #0x1                   	// #1
    fdcc4570:	97fff2a4 	bl	0xfdcc1000
    fdcc4574:	71000463 	subs	w3, w3, #0x1
    fdcc4578:	54ffff41 	b.ne	0xfdcc4560  // b.any
    fdcc457c:	52800a40 	mov	w0, #0x52                  	// #82
    fdcc4580:	97fff8c0 	bl	0xfdcc2880
    fdcc4584:	52800880 	mov	w0, #0x44                  	// #68
    fdcc4588:	97fff8be 	bl	0xfdcc2880
    fdcc458c:	52800740 	mov	w0, #0x3a                  	// #58
    fdcc4590:	97fff8bc 	bl	0xfdcc2880
    fdcc4594:	52800a80 	mov	w0, #0x54                  	// #84
    fdcc4598:	97fff8ba 	bl	0xfdcc2880
    fdcc459c:	52800be0 	mov	w0, #0x5f                  	// #95
    fdcc45a0:	97fff8b8 	bl	0xfdcc2880
    fdcc45a4:	528009e0 	mov	w0, #0x4f                  	// #79
    fdcc45a8:	97fff8b6 	bl	0xfdcc2880
    fdcc45ac:	52800140 	mov	w0, #0xa                   	// #10
    fdcc45b0:	97fff8b4 	bl	0xfdcc2880
    fdcc45b4:	12800002 	mov	w2, #0xffffffff            	// #-1
    fdcc45b8:	d2801283 	mov	x3, #0x94                  	// #148
    fdcc45bc:	710001ff 	cmp	w15, #0x0
    fdcc45c0:	f2bfd003 	movk	x3, #0xfe80, lsl #16
    fdcc45c4:	12800024 	mov	w4, #0xfffffffe            	// #-2
    fdcc45c8:	12880001 	mov	w1, #0xffffbfff            	// #-16385
    fdcc45cc:	1a841021 	csel	w1, w1, w4, ne	// ne = any
    fdcc45d0:	b9400060 	ldr	w0, [x3]
    fdcc45d4:	0a010000 	and	w0, w0, w1
    fdcc45d8:	b9000060 	str	w0, [x3]
    fdcc45dc:	2a1203e0 	mov	w0, w18
    fdcc45e0:	97fffcc1 	bl	0xfdcc38e4
    fdcc45e4:	2a0203e0 	mov	w0, w2
    fdcc45e8:	a94153f3 	ldp	x19, x20, [sp, #16]
    fdcc45ec:	a8c37bfd 	ldp	x29, x30, [sp], #48
    fdcc45f0:	d65f03c0 	ret
    fdcc45f4:	5280000f 	mov	w15, #0x0                   	// #0
    fdcc45f8:	17ffff8e 	b	0xfdcc4430
    fdcc45fc:	3500044f 	cbnz	w15, 0xfdcc4684
    fdcc4600:	35fff814 	cbnz	w20, 0xfdcc4500
    fdcc4604:	b9400020 	ldr	w0, [x1]
    fdcc4608:	d2806c84 	mov	x4, #0x364                 	// #868
    fdcc460c:	531f7a68 	lsl	w8, w19, #1
    fdcc4610:	910083e7 	add	x7, sp, #0x20
    fdcc4614:	321d0000 	orr	w0, w0, #0x8
    fdcc4618:	d2803006 	mov	x6, #0x180                 	// #384
    fdcc461c:	f2bfd004 	movk	x4, #0xfe80, lsl #16
    fdcc4620:	b9000020 	str	w0, [x1]
    fdcc4624:	d2800000 	mov	x0, #0x0                   	// #0
    fdcc4628:	0b400501 	add	w1, w8, w0, lsr #1
    fdcc462c:	9b067c05 	mul	x5, x0, x6
    fdcc4630:	531c0002 	ubfiz	w2, w0, #4, #1
    fdcc4634:	91000400 	add	x0, x0, #0x1
    fdcc4638:	f100101f 	cmp	x0, #0x4
    fdcc463c:	b86178e1 	ldr	w1, [x7, x1, lsl #2]
    fdcc4640:	1ac22421 	lsr	w1, w1, w2
    fdcc4644:	b86468a2 	ldr	w2, [x5, x4]
    fdcc4648:	53181c23 	ubfiz	w3, w1, #8, #8
    fdcc464c:	d3483c21 	ubfx	x1, x1, #8, #8
    fdcc4650:	12103c42 	and	w2, w2, #0xffff0000
    fdcc4654:	2a010061 	orr	w1, w3, w1
    fdcc4658:	2a010041 	orr	w1, w2, w1
    fdcc465c:	b82468a1 	str	w1, [x5, x4]
    fdcc4660:	54fffe41 	b.ne	0xfdcc4628  // b.any
    fdcc4664:	d2812c81 	mov	x1, #0x964                 	// #2404
    fdcc4668:	528c6e42 	mov	w2, #0x6372                	// #25458
    fdcc466c:	f2bfd001 	movk	x1, #0xfe80, lsl #16
    fdcc4670:	b9400020 	ldr	w0, [x1]
    fdcc4674:	12103c00 	and	w0, w0, #0xffff0000
    fdcc4678:	2a020000 	orr	w0, w0, w2
    fdcc467c:	b9000020 	str	w0, [x1]
    fdcc4680:	17ffffa0 	b	0xfdcc4500
    fdcc4684:	52806401 	mov	w1, #0x320                 	// #800
    fdcc4688:	d2803603 	mov	x3, #0x1b0                 	// #432
    fdcc468c:	f2bfd003 	movk	x3, #0xfe80, lsl #16
    fdcc4690:	1b017da1 	mul	w1, w13, w1
    fdcc4694:	52807d0d 	mov	w13, #0x3e8                 	// #1000
    fdcc4698:	b9400060 	ldr	w0, [x3]
    fdcc469c:	53017c21 	lsr	w1, w1, #1
    fdcc46a0:	12165400 	and	w0, w0, #0xfffffc00
    fdcc46a4:	110f9c21 	add	w1, w1, #0x3e7
    fdcc46a8:	12085c00 	and	w0, w0, #0xff00ffff
    fdcc46ac:	1acd0821 	udiv	w1, w1, w13
    fdcc46b0:	12002421 	and	w1, w1, #0x3ff
    fdcc46b4:	2a000021 	orr	w1, w1, w0
    fdcc46b8:	52a00500 	mov	w0, #0x280000              	// #2621440
    fdcc46bc:	2a000021 	orr	w1, w1, w0
    fdcc46c0:	b9000061 	str	w1, [x3]
    fdcc46c4:	17ffff8f 	b	0xfdcc4500
    fdcc46c8:	3400018f 	cbz	w15, 0xfdcc46f8
    fdcc46cc:	b94000a2 	ldr	w2, [x5]
    fdcc46d0:	721f0842 	ands	w2, w2, #0xe
    fdcc46d4:	54fff720 	b.eq	0xfdcc45b8  // b.none
    fdcc46d8:	52800a40 	mov	w0, #0x52                  	// #82
    fdcc46dc:	97fff869 	bl	0xfdcc2880
    fdcc46e0:	52800880 	mov	w0, #0x44                  	// #68
    fdcc46e4:	97fff867 	bl	0xfdcc2880
    fdcc46e8:	52800740 	mov	w0, #0x3a                  	// #58
    fdcc46ec:	97fff865 	bl	0xfdcc2880
    fdcc46f0:	528008a0 	mov	w0, #0x45                  	// #69
    fdcc46f4:	17ffffad 	b	0xfdcc45a8
    fdcc46f8:	d2805680 	mov	x0, #0x2b4                 	// #692
    fdcc46fc:	f2bfd000 	movk	x0, #0xfe80, lsl #16
    fdcc4700:	b9400002 	ldr	w2, [x0]
    fdcc4704:	530a7c42 	lsr	w2, w2, #10
    fdcc4708:	0a4e2042 	and	w2, w2, w14, lsr #8
    fdcc470c:	72001042 	ands	w2, w2, #0x1f
    fdcc4710:	54fff540 	b.eq	0xfdcc45b8  // b.none
    fdcc4714:	52800a40 	mov	w0, #0x52                  	// #82
    fdcc4718:	97fff85a 	bl	0xfdcc2880
    fdcc471c:	52800880 	mov	w0, #0x44                  	// #68
    fdcc4720:	97fff858 	bl	0xfdcc2880
    fdcc4724:	52800740 	mov	w0, #0x3a                  	// #58
    fdcc4728:	97fff856 	bl	0xfdcc2880
    fdcc472c:	52800c60 	mov	w0, #0x63                  	// #99
    fdcc4730:	97fff854 	bl	0xfdcc2880
    fdcc4734:	2a1303e0 	mov	w0, w19
    fdcc4738:	97fff894 	bl	0xfdcc2988
    fdcc473c:	528005a0 	mov	w0, #0x2d                  	// #45
    fdcc4740:	17ffffeb 	b	0xfdcc46ec
    fdcc4744:	d2800305 	mov	x5, #0x18                  	// #24
    fdcc4748:	f2bfc4a5 	movk	x5, #0xfe25, lsl #16
    fdcc474c:	b94000a4 	ldr	w4, [x5]
    fdcc4750:	3707ffe4 	tbnz	w4, #0, 0xfdcc474c
    fdcc4754:	d2800205 	mov	x5, #0x10                  	// #16
    fdcc4758:	d2800284 	mov	x4, #0x14                  	// #20
    fdcc475c:	531c6c00 	lsl	w0, w0, #4
    fdcc4760:	71000c7f 	cmp	w3, #0x3
    fdcc4764:	f2bfc4a5 	movk	x5, #0xfe25, lsl #16
    fdcc4768:	f2bfc4a4 	movk	x4, #0xfe25, lsl #16
    fdcc476c:	54000040 	b.eq	0xfdcc4774  // b.none
    fdcc4770:	35000223 	cbnz	w3, 0xfdcc47b4
    fdcc4774:	2a013001 	orr	w1, w0, w1, lsl #12
    fdcc4778:	b90000a1 	str	w1, [x5]
    fdcc477c:	b9000082 	str	w2, [x4]
    fdcc4780:	d2800200 	mov	x0, #0x10                  	// #16
    fdcc4784:	f2bfc4a0 	movk	x0, #0xfe25, lsl #16
    fdcc4788:	b9400001 	ldr	w1, [x0]
    fdcc478c:	32010021 	orr	w1, w1, #0x80000000
    fdcc4790:	b9000001 	str	w1, [x0]
    fdcc4794:	b9400001 	ldr	w1, [x0]
    fdcc4798:	37ffffe1 	tbnz	w1, #31, 0xfdcc4794
    fdcc479c:	d2800301 	mov	x1, #0x18                  	// #24
    fdcc47a0:	f2bfc4a1 	movk	x1, #0xfe25, lsl #16
    fdcc47a4:	b9400020 	ldr	w0, [x1]
    fdcc47a8:	3707ffe0 	tbnz	w0, #0, 0xfdcc47a4
    fdcc47ac:	52800000 	mov	w0, #0x0                   	// #0
    fdcc47b0:	d65f03c0 	ret
    fdcc47b4:	12001c42 	and	w2, w2, #0xff
    fdcc47b8:	b90000a0 	str	w0, [x5]
    fdcc47bc:	2a012041 	orr	w1, w2, w1, lsl #8
    fdcc47c0:	b9000081 	str	w1, [x4]
    fdcc47c4:	17ffffef 	b	0xfdcc4780
    fdcc47c8:	a9bf7bfd 	stp	x29, x30, [sp, #-16]!
    fdcc47cc:	2a0003e9 	mov	w9, w0
    fdcc47d0:	d2bfd000 	mov	x0, #0xfe800000            	// #4269801472
    fdcc47d4:	910003fd 	mov	x29, sp
    fdcc47d8:	b940000b 	ldr	w11, [x0]
    fdcc47dc:	2a0103e3 	mov	w3, w1
    fdcc47e0:	2a0203ea 	mov	w10, w2
    fdcc47e4:	d348316b 	ubfx	x11, x11, #8, #5
    fdcc47e8:	97fffc4b 	bl	0xfdcc3914
    fdcc47ec:	2a0003e8 	mov	w8, w0
    fdcc47f0:	d2801401 	mov	x1, #0xa0                  	// #160
    fdcc47f4:	f2bfd001 	movk	x1, #0xfe80, lsl #16
    fdcc47f8:	b9400020 	ldr	w0, [x1]
    fdcc47fc:	121f7800 	and	w0, w0, #0xfffffffe
    fdcc4800:	b9000020 	str	w0, [x1]
    fdcc4804:	d2800500 	mov	x0, #0x28                  	// #40
    fdcc4808:	f2bfc4a0 	movk	x0, #0xfe25, lsl #16
    fdcc480c:	b9400000 	ldr	w0, [x0]
    fdcc4810:	72000400 	ands	w0, w0, #0x3
    fdcc4814:	1143f804 	add	w4, w0, #0xfe, lsl #12
    fdcc4818:	d2801b80 	mov	x0, #0xdc                  	// #220
    fdcc481c:	11094484 	add	w4, w4, #0x251
    fdcc4820:	f2bfc4a0 	movk	x0, #0xfe25, lsl #16
    fdcc4824:	53144c84 	lsl	w4, w4, #12
    fdcc4828:	11037084 	add	w4, w4, #0xdc
    fdcc482c:	9a801084 	csel	x4, x4, x0, ne	// ne = any
    fdcc4830:	71000c7f 	cmp	w3, #0x3
    fdcc4834:	b9400086 	ldr	w6, [x4]
    fdcc4838:	54000040 	b.eq	0xfdcc4840  // b.none
    fdcc483c:	35000763 	cbnz	w3, 0xfdcc4928
    fdcc4840:	120034c6 	and	w6, w6, #0x3fff
    fdcc4844:	321200c6 	orr	w6, w6, #0x4000
    fdcc4848:	d2800084 	mov	x4, #0x4                   	// #4
    fdcc484c:	71000c7f 	cmp	w3, #0x3
    fdcc4850:	f2bfd004 	movk	x4, #0xfe80, lsl #16
    fdcc4854:	b9400085 	ldr	w5, [x4]
    fdcc4858:	12003ca5 	and	w5, w5, #0xffff
    fdcc485c:	2a0640a5 	orr	w5, w5, w6, lsl #16
    fdcc4860:	b9000085 	str	w5, [x4]
    fdcc4864:	54000040 	b.eq	0xfdcc486c  // b.none
    fdcc4868:	35000163 	cbnz	w3, 0xfdcc4894
    fdcc486c:	7100095f 	cmp	w10, #0x2
    fdcc4870:	54000121 	b.ne	0xfdcc4894  // b.any
    fdcc4874:	b9400080 	ldr	w0, [x4]
    fdcc4878:	52800021 	mov	w1, #0x1                   	// #1
    fdcc487c:	321400c2 	orr	w2, w6, #0x1000
    fdcc4880:	32020000 	orr	w0, w0, #0x40000000
    fdcc4884:	b9000080 	str	w0, [x4]
    fdcc4888:	11000520 	add	w0, w9, #0x1
    fdcc488c:	0a010000 	and	w0, w0, w1
    fdcc4890:	97ffffad 	bl	0xfdcc4744
    fdcc4894:	d2800087 	mov	x7, #0x4                   	// #4
    fdcc4898:	52800025 	mov	w5, #0x1                   	// #1
    fdcc489c:	f2bfd007 	movk	x7, #0xfe80, lsl #16
    fdcc48a0:	1ac920a5 	lsl	w5, w5, w9
    fdcc48a4:	2a2503e5 	mvn	w5, w5
    fdcc48a8:	52807d24 	mov	w4, #0x3e9                 	// #1001
    fdcc48ac:	b94000e0 	ldr	w0, [x7]
    fdcc48b0:	33180ca0 	bfi	w0, w5, #8, #4
    fdcc48b4:	b90000e0 	str	w0, [x7]
    fdcc48b8:	d2804185 	mov	x5, #0x20c                 	// #524
    fdcc48bc:	b94000e0 	ldr	w0, [x7]
    fdcc48c0:	f2bfd005 	movk	x5, #0xfe80, lsl #16
    fdcc48c4:	321a0000 	orr	w0, w0, #0x40
    fdcc48c8:	b90000e0 	str	w0, [x7]
    fdcc48cc:	b94000a0 	ldr	w0, [x5]
    fdcc48d0:	d3483000 	ubfx	x0, x0, #8, #5
    fdcc48d4:	6b0b001f 	cmp	w0, w11
    fdcc48d8:	540002c0 	b.eq	0xfdcc4930  // b.none
    fdcc48dc:	52800020 	mov	w0, #0x1                   	// #1
    fdcc48e0:	97fff1c8 	bl	0xfdcc1000
    fdcc48e4:	71000484 	subs	w4, w4, #0x1
    fdcc48e8:	54ffff21 	b.ne	0xfdcc48cc  // b.any
    fdcc48ec:	52800ae0 	mov	w0, #0x57                  	// #87
    fdcc48f0:	97fff7e4 	bl	0xfdcc2880
    fdcc48f4:	52800980 	mov	w0, #0x4c                  	// #76
    fdcc48f8:	97fff7e2 	bl	0xfdcc2880
    fdcc48fc:	52800740 	mov	w0, #0x3a                  	// #58
    fdcc4900:	97fff7e0 	bl	0xfdcc2880
    fdcc4904:	52800a80 	mov	w0, #0x54                  	// #84
    fdcc4908:	97fff7de 	bl	0xfdcc2880
    fdcc490c:	52800be0 	mov	w0, #0x5f                  	// #95
    fdcc4910:	97fff7dc 	bl	0xfdcc2880
    fdcc4914:	528009e0 	mov	w0, #0x4f                  	// #79
    fdcc4918:	97fff7da 	bl	0xfdcc2880
    fdcc491c:	52800140 	mov	w0, #0xa                   	// #10
    fdcc4920:	97fff7d8 	bl	0xfdcc2880
    fdcc4924:	14000000 	b	0xfdcc4924
    fdcc4928:	12001cc6 	and	w6, w6, #0xff
    fdcc492c:	17ffffc7 	b	0xfdcc4848
    fdcc4930:	d2800085 	mov	x5, #0x4                   	// #4
    fdcc4934:	71000c7f 	cmp	w3, #0x3
    fdcc4938:	f2bfd005 	movk	x5, #0xfe80, lsl #16
    fdcc493c:	b94000a0 	ldr	w0, [x5]
    fdcc4940:	12197800 	and	w0, w0, #0xffffffbf
    fdcc4944:	b90000a0 	str	w0, [x5]
    fdcc4948:	b94000a0 	ldr	w0, [x5]
    fdcc494c:	12146c00 	and	w0, w0, #0xfffff0ff
    fdcc4950:	b90000a0 	str	w0, [x5]
    fdcc4954:	54000040 	b.eq	0xfdcc495c  // b.none
    fdcc4958:	35000103 	cbnz	w3, 0xfdcc4978
    fdcc495c:	7100095f 	cmp	w10, #0x2
    fdcc4960:	540000c1 	b.ne	0xfdcc4978  // b.any
    fdcc4964:	11000520 	add	w0, w9, #0x1
    fdcc4968:	52800021 	mov	w1, #0x1                   	// #1
    fdcc496c:	121378c2 	and	w2, w6, #0xffffefff
    fdcc4970:	0a010000 	and	w0, w0, w1
    fdcc4974:	97ffff74 	bl	0xfdcc4744
    fdcc4978:	2a0803e0 	mov	w0, w8
    fdcc497c:	97fffbda 	bl	0xfdcc38e4
    fdcc4980:	52800000 	mov	w0, #0x0                   	// #0
    fdcc4984:	a8c17bfd 	ldp	x29, x30, [sp], #16
    fdcc4988:	d65f03c0 	ret
    fdcc498c:	2a0103e7 	mov	w7, w1
    fdcc4990:	d2801401 	mov	x1, #0xa0                  	// #160
    fdcc4994:	a9bf7bfd 	stp	x29, x30, [sp, #-16]!
    fdcc4998:	f2bfd001 	movk	x1, #0xfe80, lsl #16
    fdcc499c:	2a0003e6 	mov	w6, w0
    fdcc49a0:	910003fd 	mov	x29, sp
    fdcc49a4:	b9400020 	ldr	w0, [x1]
    fdcc49a8:	2a0203ed 	mov	w13, w2
    fdcc49ac:	2a0303e9 	mov	w9, w3
    fdcc49b0:	710018ff 	cmp	w7, #0x6
    fdcc49b4:	32070000 	orr	w0, w0, #0x2000000
    fdcc49b8:	b9000020 	str	w0, [x1]
    fdcc49bc:	540004e1 	b.ne	0xfdcc4a58  // b.any
    fdcc49c0:	7106405f 	cmp	w2, #0x190
    fdcc49c4:	540004a8 	b.hi	0xfdcc4a58  // b.pmore
    fdcc49c8:	d2800500 	mov	x0, #0x28                  	// #40
    fdcc49cc:	d2800184 	mov	x4, #0xc                   	// #12
    fdcc49d0:	f2bfc4a0 	movk	x0, #0xfe25, lsl #16
    fdcc49d4:	d2800203 	mov	x3, #0x10                  	// #16
    fdcc49d8:	f2bfd003 	movk	x3, #0xfe80, lsl #16
    fdcc49dc:	f2bfd004 	movk	x4, #0xfe80, lsl #16
    fdcc49e0:	b940000c 	ldr	w12, [x0]
    fdcc49e4:	52800060 	mov	w0, #0x3                   	// #3
    fdcc49e8:	b940008a 	ldr	w10, [x4]
    fdcc49ec:	528007e1 	mov	w1, #0x3f                  	// #63
    fdcc49f0:	1200058c 	and	w12, w12, #0x3
    fdcc49f4:	b9400068 	ldr	w8, [x3]
    fdcc49f8:	4b0c0000 	sub	w0, w0, w12
    fdcc49fc:	b9400082 	ldr	w2, [x4]
    fdcc4a00:	52800105 	mov	w5, #0x8                   	// #8
    fdcc4a04:	531d7000 	lsl	w0, w0, #3
    fdcc4a08:	1ac02021 	lsl	w1, w1, w0
    fdcc4a0c:	0a210042 	bic	w2, w2, w1
    fdcc4a10:	1ac020a5 	lsl	w5, w5, w0
    fdcc4a14:	2a050042 	orr	w2, w2, w5
    fdcc4a18:	b9000082 	str	w2, [x4]
    fdcc4a1c:	1ac0254a 	lsr	w10, w10, w0
    fdcc4a20:	1ac02508 	lsr	w8, w8, w0
    fdcc4a24:	1200154a 	and	w10, w10, #0x3f
    fdcc4a28:	b9400062 	ldr	w2, [x3]
    fdcc4a2c:	12001508 	and	w8, w8, #0x3f
    fdcc4a30:	0a210041 	bic	w1, w2, w1
    fdcc4a34:	52800082 	mov	w2, #0x4                   	// #4
    fdcc4a38:	1ac02040 	lsl	w0, w2, w0
    fdcc4a3c:	2a000021 	orr	w1, w1, w0
    fdcc4a40:	b9000061 	str	w1, [x3]
    fdcc4a44:	2a0703e2 	mov	w2, w7
    fdcc4a48:	2a0703e3 	mov	w3, w7
    fdcc4a4c:	528001e0 	mov	w0, #0xf                   	// #15
    fdcc4a50:	52800041 	mov	w1, #0x2                   	// #2
    fdcc4a54:	97ffff3c 	bl	0xfdcc4744
    fdcc4a58:	97fffbaf 	bl	0xfdcc3914
    fdcc4a5c:	2a0003ee 	mov	w14, w0
    fdcc4a60:	d2801481 	mov	x1, #0xa4                  	// #164
    fdcc4a64:	d2801404 	mov	x4, #0xa0                  	// #160
    fdcc4a68:	f2bfd001 	movk	x1, #0xfe80, lsl #16
    fdcc4a6c:	f2bfd004 	movk	x4, #0xfe80, lsl #16
    fdcc4a70:	52b18002 	mov	w2, #0x8c000000            	// #-1946157056
    fdcc4a74:	b9400020 	ldr	w0, [x1]
    fdcc4a78:	0a020000 	and	w0, w0, w2
    fdcc4a7c:	b9000020 	str	w0, [x1]
    fdcc4a80:	b9400080 	ldr	w0, [x4]
    fdcc4a84:	32160000 	orr	w0, w0, #0x400
    fdcc4a88:	b9000080 	str	w0, [x4]
    fdcc4a8c:	d2800500 	mov	x0, #0x28                  	// #40
    fdcc4a90:	f2bfc4a0 	movk	x0, #0xfe25, lsl #16
    fdcc4a94:	9100f000 	add	x0, x0, #0x3c
    fdcc4a98:	b85c4003 	ldur	w3, [x0, #-60]
    fdcc4a9c:	72000463 	ands	w3, w3, #0x3
    fdcc4aa0:	1143f865 	add	w5, w3, #0xfe, lsl #12
    fdcc4aa4:	110944a5 	add	w5, w5, #0x251
    fdcc4aa8:	53144ca5 	lsl	w5, w5, #12
    fdcc4aac:	110190a5 	add	w5, w5, #0x64
    fdcc4ab0:	9a8010a5 	csel	x5, x5, x0, ne	// ne = any
    fdcc4ab4:	b94000a1 	ldr	w1, [x5]
    fdcc4ab8:	b94000a2 	ldr	w2, [x5]
    fdcc4abc:	d2801505 	mov	x5, #0xa8                  	// #168
    fdcc4ac0:	f2bfd005 	movk	x5, #0xfe80, lsl #16
    fdcc4ac4:	d3506c21 	ubfx	x1, x1, #16, #12
    fdcc4ac8:	b94000a0 	ldr	w0, [x5]
    fdcc4acc:	53182442 	ubfiz	w2, w2, #8, #10
    fdcc4ad0:	32190042 	orr	w2, w2, #0x80
    fdcc4ad4:	12000c00 	and	w0, w0, #0xf
    fdcc4ad8:	2a015c01 	orr	w1, w0, w1, lsl #23
    fdcc4adc:	2a020021 	orr	w1, w1, w2
    fdcc4ae0:	b90000a1 	str	w1, [x5]
    fdcc4ae4:	52800021 	mov	w1, #0x1                   	// #1
    fdcc4ae8:	910520a5 	add	x5, x5, #0x148
    fdcc4aec:	b9400080 	ldr	w0, [x4]
    fdcc4af0:	1ac62021 	lsl	w1, w1, w6
    fdcc4af4:	2a2103e1 	mvn	w1, w1
    fdcc4af8:	331a0c20 	bfi	w0, w1, #6, #4
    fdcc4afc:	b9000080 	str	w0, [x4]
    fdcc4b00:	b9400080 	ldr	w0, [x4]
    fdcc4b04:	321c0000 	orr	w0, w0, #0x10
    fdcc4b08:	b9000080 	str	w0, [x4]
    fdcc4b0c:	b9400080 	ldr	w0, [x4]
    fdcc4b10:	32000000 	orr	w0, w0, #0x1
    fdcc4b14:	b9000080 	str	w0, [x4]
    fdcc4b18:	b9400080 	ldr	w0, [x4]
    fdcc4b1c:	321f0000 	orr	w0, w0, #0x2
    fdcc4b20:	b9000080 	str	w0, [x4]
    fdcc4b24:	52807d24 	mov	w4, #0x3e9                 	// #1001
    fdcc4b28:	b94000a0 	ldr	w0, [x5]
    fdcc4b2c:	373806a0 	tbnz	w0, #7, 0xfdcc4c00
    fdcc4b30:	52800020 	mov	w0, #0x1                   	// #1
    fdcc4b34:	97fff133 	bl	0xfdcc1000
    fdcc4b38:	71000484 	subs	w4, w4, #0x1
    fdcc4b3c:	54ffff61 	b.ne	0xfdcc4b28  // b.any
    fdcc4b40:	52800ae0 	mov	w0, #0x57                  	// #87
    fdcc4b44:	97fff74f 	bl	0xfdcc2880
    fdcc4b48:	52800a40 	mov	w0, #0x52                  	// #82
    fdcc4b4c:	97fff74d 	bl	0xfdcc2880
    fdcc4b50:	52800740 	mov	w0, #0x3a                  	// #58
    fdcc4b54:	97fff74b 	bl	0xfdcc2880
    fdcc4b58:	52800a80 	mov	w0, #0x54                  	// #84
    fdcc4b5c:	97fff749 	bl	0xfdcc2880
    fdcc4b60:	52800be0 	mov	w0, #0x5f                  	// #95
    fdcc4b64:	97fff747 	bl	0xfdcc2880
    fdcc4b68:	528009e0 	mov	w0, #0x4f                  	// #79
    fdcc4b6c:	97fff745 	bl	0xfdcc2880
    fdcc4b70:	52800140 	mov	w0, #0xa                   	// #10
    fdcc4b74:	97fff743 	bl	0xfdcc2880
    fdcc4b78:	1280000b 	mov	w11, #0xffffffff            	// #-1
    fdcc4b7c:	d2801402 	mov	x2, #0xa0                  	// #160
    fdcc4b80:	f2bfd002 	movk	x2, #0xfe80, lsl #16
    fdcc4b84:	b9400040 	ldr	w0, [x2]
    fdcc4b88:	121e7800 	and	w0, w0, #0xfffffffd
    fdcc4b8c:	b9000040 	str	w0, [x2]
    fdcc4b90:	2a0e03e0 	mov	w0, w14
    fdcc4b94:	97fffb54 	bl	0xfdcc38e4
    fdcc4b98:	51001ce0 	sub	w0, w7, #0x7
    fdcc4b9c:	7100041f 	cmp	w0, #0x1
    fdcc4ba0:	54000528 	b.hi	0xfdcc4c44  // b.pmore
    fdcc4ba4:	d2804600 	mov	x0, #0x230                 	// #560
    fdcc4ba8:	f2bfd000 	movk	x0, #0xfe80, lsl #16
    fdcc4bac:	b9400001 	ldr	w1, [x0]
    fdcc4bb0:	b9400000 	ldr	w0, [x0]
    fdcc4bb4:	d3483421 	ubfx	x1, x1, #8, #6
    fdcc4bb8:	12001400 	and	w0, w0, #0x3f
    fdcc4bbc:	0b000021 	add	w1, w1, w0
    fdcc4bc0:	d2800b40 	mov	x0, #0x5a                  	// #90
    fdcc4bc4:	9b007d29 	mul	x9, x9, x0
    fdcc4bc8:	f0000000 	adrp	x0, 0xfdcc7000
    fdcc4bcc:	91000000 	add	x0, x0, #0x0
    fdcc4bd0:	53017c21 	lsr	w1, w1, #1
    fdcc4bd4:	8b264126 	add	x6, x9, w6, uxtw
    fdcc4bd8:	8b060806 	add	x6, x0, x6, lsl #2
    fdcc4bdc:	b90724c1 	str	w1, [x6, #1828]
    fdcc4be0:	b9400040 	ldr	w0, [x2]
    fdcc4be4:	53187c00 	lsr	w0, w0, #24
    fdcc4be8:	531a0000 	ubfiz	w0, w0, #6, #1
    fdcc4bec:	2a010001 	orr	w1, w0, w1
    fdcc4bf0:	b90724c1 	str	w1, [x6, #1828]
    fdcc4bf4:	2a0b03e0 	mov	w0, w11
    fdcc4bf8:	a8c17bfd 	ldp	x29, x30, [sp], #16
    fdcc4bfc:	d65f03c0 	ret
    fdcc4c00:	b94000ab 	ldr	w11, [x5]
    fdcc4c04:	721f096b 	ands	w11, w11, #0xe
    fdcc4c08:	54fffba0 	b.eq	0xfdcc4b7c  // b.none
    fdcc4c0c:	52800ae0 	mov	w0, #0x57                  	// #87
    fdcc4c10:	97fff71c 	bl	0xfdcc2880
    fdcc4c14:	52800a40 	mov	w0, #0x52                  	// #82
    fdcc4c18:	97fff71a 	bl	0xfdcc2880
    fdcc4c1c:	52800740 	mov	w0, #0x3a                  	// #58
    fdcc4c20:	97fff718 	bl	0xfdcc2880
    fdcc4c24:	52800c60 	mov	w0, #0x63                  	// #99
    fdcc4c28:	97fff716 	bl	0xfdcc2880
    fdcc4c2c:	2a0603e0 	mov	w0, w6
    fdcc4c30:	97fff756 	bl	0xfdcc2988
    fdcc4c34:	528005a0 	mov	w0, #0x2d                  	// #45
    fdcc4c38:	97fff712 	bl	0xfdcc2880
    fdcc4c3c:	528008a0 	mov	w0, #0x45                  	// #69
    fdcc4c40:	17ffffcb 	b	0xfdcc4b6c
    fdcc4c44:	710018ff 	cmp	w7, #0x6
    fdcc4c48:	54fffd61 	b.ne	0xfdcc4bf4  // b.any
    fdcc4c4c:	710641bf 	cmp	w13, #0x190
    fdcc4c50:	54fffd28 	b.hi	0xfdcc4bf4  // b.pmore
    fdcc4c54:	d2800184 	mov	x4, #0xc                   	// #12
    fdcc4c58:	52800061 	mov	w1, #0x3                   	// #3
    fdcc4c5c:	f2bfd004 	movk	x4, #0xfe80, lsl #16
    fdcc4c60:	4b0c0021 	sub	w1, w1, w12
    fdcc4c64:	528007e0 	mov	w0, #0x3f                  	// #63
    fdcc4c68:	7100007f 	cmp	w3, #0x0
    fdcc4c6c:	b9400082 	ldr	w2, [x4]
    fdcc4c70:	531d7021 	lsl	w1, w1, #3
    fdcc4c74:	1ac12000 	lsl	w0, w0, w1
    fdcc4c78:	0a200042 	bic	w2, w2, w0
    fdcc4c7c:	1ac1214a 	lsl	w10, w10, w1
    fdcc4c80:	2a0a004a 	orr	w10, w2, w10
    fdcc4c84:	d2800202 	mov	x2, #0x10                  	// #16
    fdcc4c88:	b900008a 	str	w10, [x4]
    fdcc4c8c:	f2bfd002 	movk	x2, #0xfe80, lsl #16
    fdcc4c90:	1ac12108 	lsl	w8, w8, w1
    fdcc4c94:	d2801b81 	mov	x1, #0xdc                  	// #220
    fdcc4c98:	b9400044 	ldr	w4, [x2]
    fdcc4c9c:	f2bfc4a1 	movk	x1, #0xfe25, lsl #16
    fdcc4ca0:	0a200080 	bic	w0, w4, w0
    fdcc4ca4:	2a080000 	orr	w0, w0, w8
    fdcc4ca8:	b9000040 	str	w0, [x2]
    fdcc4cac:	1143f860 	add	w0, w3, #0xfe, lsl #12
    fdcc4cb0:	2a0703e3 	mov	w3, w7
    fdcc4cb4:	11094400 	add	w0, w0, #0x251
    fdcc4cb8:	53144c00 	lsl	w0, w0, #12
    fdcc4cbc:	11037000 	add	w0, w0, #0xdc
    fdcc4cc0:	9a811000 	csel	x0, x0, x1, ne	// ne = any
    fdcc4cc4:	52800041 	mov	w1, #0x2                   	// #2
    fdcc4cc8:	b9400002 	ldr	w2, [x0]
    fdcc4ccc:	528001e0 	mov	w0, #0xf                   	// #15
    fdcc4cd0:	12003c42 	and	w2, w2, #0xffff
    fdcc4cd4:	97fffe9c 	bl	0xfdcc4744
    fdcc4cd8:	17ffffc7 	b	0xfdcc4bf4
    fdcc4cdc:	a9bc7bfd 	stp	x29, x30, [sp, #-64]!
    fdcc4ce0:	2a0203ed 	mov	w13, w2
    fdcc4ce4:	2a0303e2 	mov	w2, w3
    fdcc4ce8:	910003fd 	mov	x29, sp
    fdcc4cec:	a90153f3 	stp	x19, x20, [sp, #16]
    fdcc4cf0:	2a0103f4 	mov	w20, w1
    fdcc4cf4:	a9025bf5 	stp	x21, x22, [sp, #32]
    fdcc4cf8:	aa0003f6 	mov	x22, x0
    fdcc4cfc:	b9407015 	ldr	w21, [x0, #112]
    fdcc4d00:	a90363f7 	stp	x23, x24, [sp, #48]
    fdcc4d04:	97fff25d 	bl	0xfdcc1678
    fdcc4d08:	1143f833 	add	w19, w1, #0xfe, lsl #12
    fdcc4d0c:	11094673 	add	w19, w19, #0x251
    fdcc4d10:	7100003f 	cmp	w1, #0x0
    fdcc4d14:	52bfc4a3 	mov	w3, #0xfe250000            	// #-31129600
    fdcc4d18:	910202c1 	add	x1, x22, #0x80
    fdcc4d1c:	53144e73 	lsl	w19, w19, #12
    fdcc4d20:	1a831263 	csel	w3, w19, w3, ne	// ne = any
    fdcc4d24:	b8408420 	ldr	w0, [x1], #8
    fdcc4d28:	3100041f 	cmn	w0, #0x1
    fdcc4d2c:	540015c1 	b.ne	0xfdcc4fe4  // b.any
    fdcc4d30:	f0000017 	adrp	x23, 0xfdcc7000
    fdcc4d34:	910002f7 	add	x23, x23, #0x0
    fdcc4d38:	b940aee0 	ldr	w0, [x23, #172]
    fdcc4d3c:	7100041f 	cmp	w0, #0x1
    fdcc4d40:	54000181 	b.ne	0xfdcc4d70  // b.any
    fdcc4d44:	11019260 	add	w0, w19, #0x64
    fdcc4d48:	7100029f 	cmp	w20, #0x0
    fdcc4d4c:	d2800c81 	mov	x1, #0x64                  	// #100
    fdcc4d50:	f2bfc4a1 	movk	x1, #0xfe25, lsl #16
    fdcc4d54:	9a811000 	csel	x0, x0, x1, ne	// ne = any
    fdcc4d58:	b9400004 	ldr	w4, [x0]
    fdcc4d5c:	53117c81 	lsr	w1, w4, #17
    fdcc4d60:	12044c84 	and	w4, w4, #0xf000ffff
    fdcc4d64:	53102821 	ubfiz	w1, w1, #16, #11
    fdcc4d68:	2a040021 	orr	w1, w1, w4
    fdcc4d6c:	b9000001 	str	w1, [x0]
    fdcc4d70:	51001eb8 	sub	w24, w21, #0x7
    fdcc4d74:	7100071f 	cmp	w24, #0x1
    fdcc4d78:	54000088 	b.hi	0xfdcc4d88  // b.pmore
    fdcc4d7c:	2a1403e1 	mov	w1, w20
    fdcc4d80:	aa1603e0 	mov	x0, x22
    fdcc4d84:	97fff311 	bl	0xfdcc19c8
    fdcc4d88:	97fff240 	bl	0xfdcc1688
    fdcc4d8c:	52800061 	mov	w1, #0x3                   	// #3
    fdcc4d90:	4b140021 	sub	w1, w1, w20
    fdcc4d94:	528007e3 	mov	w3, #0x3f                  	// #63
    fdcc4d98:	52800005 	mov	w5, #0x0                   	// #0
    fdcc4d9c:	531d7021 	lsl	w1, w1, #3
    fdcc4da0:	52bfd007 	mov	w7, #0xfe800000            	// #-25165824
    fdcc4da4:	1ac12063 	lsl	w3, w3, w1
    fdcc4da8:	2a2303e3 	mvn	w3, w3
    fdcc4dac:	2a0503e4 	mov	w4, w5
    fdcc4db0:	8b040ec0 	add	x0, x22, x4, lsl #3
    fdcc4db4:	b9419800 	ldr	w0, [x0, #408]
    fdcc4db8:	3100041f 	cmn	w0, #0x1
    fdcc4dbc:	540011c1 	b.ne	0xfdcc4ff4  // b.any
    fdcc4dc0:	7100071f 	cmp	w24, #0x1
    fdcc4dc4:	54000328 	b.hi	0xfdcc4e28  // b.pmore
    fdcc4dc8:	7100029f 	cmp	w20, #0x0
    fdcc4dcc:	11038260 	add	w0, w19, #0xe0
    fdcc4dd0:	d2801c01 	mov	x1, #0xe0                  	// #224
    fdcc4dd4:	52801002 	mov	w2, #0x80                  	// #128
    fdcc4dd8:	f2bfc4a1 	movk	x1, #0xfe25, lsl #16
    fdcc4ddc:	9a811000 	csel	x0, x0, x1, ne	// ne = any
    fdcc4de0:	1acd2842 	asr	w2, w2, w13
    fdcc4de4:	528001a1 	mov	w1, #0xd                   	// #13
    fdcc4de8:	2a1503e3 	mov	w3, w21
    fdcc4dec:	b9400006 	ldr	w6, [x0]
    fdcc4df0:	529fe7e0 	mov	w0, #0xff3f                	// #65343
    fdcc4df4:	0a0000c6 	and	w6, w6, w0
    fdcc4df8:	528001e0 	mov	w0, #0xf                   	// #15
    fdcc4dfc:	2a060042 	orr	w2, w2, w6
    fdcc4e00:	97fffe51 	bl	0xfdcc4744
    fdcc4e04:	531961a2 	lsl	w2, w13, #7
    fdcc4e08:	d2800601 	mov	x1, #0x30                  	// #48
    fdcc4e0c:	2a0d184d 	orr	w13, w2, w13, lsl #6
    fdcc4e10:	f2bfd001 	movk	x1, #0xfe80, lsl #16
    fdcc4e14:	2a0601ad 	orr	w13, w13, w6
    fdcc4e18:	b9400020 	ldr	w0, [x1]
    fdcc4e1c:	12085c00 	and	w0, w0, #0xff00ffff
    fdcc4e20:	2a0d400d 	orr	w13, w0, w13, lsl #16
    fdcc4e24:	b900002d 	str	w13, [x1]
    fdcc4e28:	2a1403e1 	mov	w1, w20
    fdcc4e2c:	aa1603e0 	mov	x0, x22
    fdcc4e30:	97ffface 	bl	0xfdcc3968
    fdcc4e34:	7100071f 	cmp	w24, #0x1
    fdcc4e38:	54000ca8 	b.hi	0xfdcc4fcc  // b.pmore
    fdcc4e3c:	7100029f 	cmp	w20, #0x0
    fdcc4e40:	11038260 	add	w0, w19, #0xe0
    fdcc4e44:	d2801c01 	mov	x1, #0xe0                  	// #224
    fdcc4e48:	2a1503e3 	mov	w3, w21
    fdcc4e4c:	f2bfc4a1 	movk	x1, #0xfe25, lsl #16
    fdcc4e50:	9a811000 	csel	x0, x0, x1, ne	// ne = any
    fdcc4e54:	52800061 	mov	w1, #0x3                   	// #3
    fdcc4e58:	b9400006 	ldr	w6, [x0]
    fdcc4e5c:	528001e0 	mov	w0, #0xf                   	// #15
    fdcc4e60:	53107cc6 	lsr	w6, w6, #16
    fdcc4e64:	2a0603e2 	mov	w2, w6
    fdcc4e68:	97fffe37 	bl	0xfdcc4744
    fdcc4e6c:	d2800587 	mov	x7, #0x2c                  	// #44
    fdcc4e70:	7100029f 	cmp	w20, #0x0
    fdcc4e74:	f2bfd007 	movk	x7, #0xfe80, lsl #16
    fdcc4e78:	11037260 	add	w0, w19, #0xdc
    fdcc4e7c:	d2801b81 	mov	x1, #0xdc                  	// #220
    fdcc4e80:	b94000e2 	ldr	w2, [x7]
    fdcc4e84:	f2bfc4a1 	movk	x1, #0xfe25, lsl #16
    fdcc4e88:	9a811000 	csel	x0, x0, x1, ne	// ne = any
    fdcc4e8c:	52800021 	mov	w1, #0x1                   	// #1
    fdcc4e90:	12105c42 	and	w2, w2, #0xffff00ff
    fdcc4e94:	2a062046 	orr	w6, w2, w6, lsl #8
    fdcc4e98:	b90000e6 	str	w6, [x7]
    fdcc4e9c:	b9400006 	ldr	w6, [x0]
    fdcc4ea0:	528001e0 	mov	w0, #0xf                   	// #15
    fdcc4ea4:	53107cc8 	lsr	w8, w6, #16
    fdcc4ea8:	2a0803e2 	mov	w2, w8
    fdcc4eac:	97fffe26 	bl	0xfdcc4744
    fdcc4eb0:	b94000e2 	ldr	w2, [x7]
    fdcc4eb4:	12003cc6 	and	w6, w6, #0xffff
    fdcc4eb8:	52800041 	mov	w1, #0x2                   	// #2
    fdcc4ebc:	12005c42 	and	w2, w2, #0xffffff
    fdcc4ec0:	528001e0 	mov	w0, #0xf                   	// #15
    fdcc4ec4:	2a086048 	orr	w8, w2, w8, lsl #24
    fdcc4ec8:	b90000e8 	str	w8, [x7]
    fdcc4ecc:	2a0603e2 	mov	w2, w6
    fdcc4ed0:	97fffe1d 	bl	0xfdcc4744
    fdcc4ed4:	b94000e2 	ldr	w2, [x7]
    fdcc4ed8:	1103a260 	add	w0, w19, #0xe8
    fdcc4edc:	7100029f 	cmp	w20, #0x0
    fdcc4ee0:	d2801d01 	mov	x1, #0xe8                  	// #232
    fdcc4ee4:	12085c42 	and	w2, w2, #0xff00ffff
    fdcc4ee8:	f2bfc4a1 	movk	x1, #0xfe25, lsl #16
    fdcc4eec:	9a811000 	csel	x0, x0, x1, ne	// ne = any
    fdcc4ef0:	2a064046 	orr	w6, w2, w6, lsl #16
    fdcc4ef4:	b90000e6 	str	w6, [x7]
    fdcc4ef8:	52800161 	mov	w1, #0xb                   	// #11
    fdcc4efc:	b9400007 	ldr	w7, [x0]
    fdcc4f00:	b946f6e0 	ldr	w0, [x23, #1780]
    fdcc4f04:	53107ce6 	lsr	w6, w7, #16
    fdcc4f08:	121970c8 	and	w8, w6, #0xffffff8f
    fdcc4f0c:	2a0603e2 	mov	w2, w6
    fdcc4f10:	34000880 	cbz	w0, 0xfdcc5020
    fdcc4f14:	b94002c0 	ldr	w0, [x22]
    fdcc4f18:	7100081f 	cmp	w0, #0x2
    fdcc4f1c:	54000821 	b.ne	0xfdcc5020  // b.any
    fdcc4f20:	52800060 	mov	w0, #0x3                   	// #3
    fdcc4f24:	97fffe08 	bl	0xfdcc4744
    fdcc4f28:	2a0803e2 	mov	w2, w8
    fdcc4f2c:	52800161 	mov	w1, #0xb                   	// #11
    fdcc4f30:	52800180 	mov	w0, #0xc                   	// #12
    fdcc4f34:	97fffe04 	bl	0xfdcc4744
    fdcc4f38:	1103b273 	add	w19, w19, #0xec
    fdcc4f3c:	d2800580 	mov	x0, #0x2c                  	// #44
    fdcc4f40:	2a1503e3 	mov	w3, w21
    fdcc4f44:	f2bfd000 	movk	x0, #0xfe80, lsl #16
    fdcc4f48:	52800181 	mov	w1, #0xc                   	// #12
    fdcc4f4c:	b9400002 	ldr	w2, [x0]
    fdcc4f50:	12185c42 	and	w2, w2, #0xffffff00
    fdcc4f54:	2a060042 	orr	w2, w2, w6
    fdcc4f58:	b9000002 	str	w2, [x0]
    fdcc4f5c:	12003ce2 	and	w2, w7, #0xffff
    fdcc4f60:	528001e0 	mov	w0, #0xf                   	// #15
    fdcc4f64:	97fffdf8 	bl	0xfdcc4744
    fdcc4f68:	7100029f 	cmp	w20, #0x0
    fdcc4f6c:	d2801d80 	mov	x0, #0xec                  	// #236
    fdcc4f70:	f2bfc4a0 	movk	x0, #0xfe25, lsl #16
    fdcc4f74:	9a801273 	csel	x19, x19, x0, ne	// ne = any
    fdcc4f78:	528002c1 	mov	w1, #0x16                  	// #22
    fdcc4f7c:	528001e0 	mov	w0, #0xf                   	// #15
    fdcc4f80:	b9400266 	ldr	w6, [x19]
    fdcc4f84:	53107cc8 	lsr	w8, w6, #16
    fdcc4f88:	2a0803e2 	mov	w2, w8
    fdcc4f8c:	97fffdee 	bl	0xfdcc4744
    fdcc4f90:	12003cc6 	and	w6, w6, #0xffff
    fdcc4f94:	d2800607 	mov	x7, #0x30                  	// #48
    fdcc4f98:	2a0603e2 	mov	w2, w6
    fdcc4f9c:	f2bfd007 	movk	x7, #0xfe80, lsl #16
    fdcc4fa0:	528001c1 	mov	w1, #0xe                   	// #14
    fdcc4fa4:	b94000e0 	ldr	w0, [x7]
    fdcc4fa8:	12185c00 	and	w0, w0, #0xffffff00
    fdcc4fac:	2a080000 	orr	w0, w0, w8
    fdcc4fb0:	b90000e0 	str	w0, [x7]
    fdcc4fb4:	528001e0 	mov	w0, #0xf                   	// #15
    fdcc4fb8:	97fffde3 	bl	0xfdcc4744
    fdcc4fbc:	b94000e2 	ldr	w2, [x7]
    fdcc4fc0:	12105c42 	and	w2, w2, #0xffff00ff
    fdcc4fc4:	2a062046 	orr	w6, w2, w6, lsl #8
    fdcc4fc8:	b90000e6 	str	w6, [x7]
    fdcc4fcc:	aa1603e0 	mov	x0, x22
    fdcc4fd0:	a94153f3 	ldp	x19, x20, [sp, #16]
    fdcc4fd4:	a9425bf5 	ldp	x21, x22, [sp, #32]
    fdcc4fd8:	a94363f7 	ldp	x23, x24, [sp, #48]
    fdcc4fdc:	a8c47bfd 	ldp	x29, x30, [sp], #64
    fdcc4fe0:	17fff235 	b	0xfdcc18b4
    fdcc4fe4:	0b030000 	add	w0, w0, w3
    fdcc4fe8:	b85fc024 	ldur	w4, [x1, #-4]
    fdcc4fec:	b9000004 	str	w4, [x0]
    fdcc4ff0:	17ffff4d 	b	0xfdcc4d24
    fdcc4ff4:	8b040ec4 	add	x4, x22, x4, lsl #3
    fdcc4ff8:	0b070002 	add	w2, w0, w7
    fdcc4ffc:	110004a5 	add	w5, w5, #0x1
    fdcc5000:	39467c80 	ldrb	w0, [x4, #415]
    fdcc5004:	b9400046 	ldr	w6, [x2]
    fdcc5008:	12001400 	and	w0, w0, #0x3f
    fdcc500c:	0a0300c4 	and	w4, w6, w3
    fdcc5010:	1ac12000 	lsl	w0, w0, w1
    fdcc5014:	2a040000 	orr	w0, w0, w4
    fdcc5018:	b9000040 	str	w0, [x2]
    fdcc501c:	17ffff64 	b	0xfdcc4dac
    fdcc5020:	528000a0 	mov	w0, #0x5                   	// #5
    fdcc5024:	97fffdc8 	bl	0xfdcc4744
    fdcc5028:	2a1503e3 	mov	w3, w21
    fdcc502c:	2a0803e2 	mov	w2, w8
    fdcc5030:	52800161 	mov	w1, #0xb                   	// #11
    fdcc5034:	52800140 	mov	w0, #0xa                   	// #10
    fdcc5038:	17ffffbf 	b	0xfdcc4f34
    fdcc503c:	2a0003e3 	mov	w3, w0
    fdcc5040:	d2806000 	mov	x0, #0x300                 	// #768
    fdcc5044:	a9bf7bfd 	stp	x29, x30, [sp, #-16]!
    fdcc5048:	f2bfd000 	movk	x0, #0xfe80, lsl #16
    fdcc504c:	2a0103e4 	mov	w4, w1
    fdcc5050:	910003fd 	mov	x29, sp
    fdcc5054:	b9400006 	ldr	w6, [x0]
    fdcc5058:	d2bfd000 	mov	x0, #0xfe800000            	// #4269801472
    fdcc505c:	7100047f 	cmp	w3, #0x1
    fdcc5060:	b9400007 	ldr	w7, [x0]
    fdcc5064:	120c00e7 	and	w7, w7, #0x100000
    fdcc5068:	540000a9 	b.ls	0xfdcc507c  // b.plast
    fdcc506c:	35000087 	cbnz	w7, 0xfdcc507c
    fdcc5070:	b9400001 	ldr	w1, [x0]
    fdcc5074:	320c0021 	orr	w1, w1, #0x100000
    fdcc5078:	b9000001 	str	w1, [x0]
    fdcc507c:	d2bfd000 	mov	x0, #0xfe800000            	// #4269801472
    fdcc5080:	121974c1 	and	w1, w6, #0xffffff9f
    fdcc5084:	d2815002 	mov	x2, #0xa80                 	// #2688
    fdcc5088:	321a0021 	orr	w1, w1, #0x40
    fdcc508c:	b9400005 	ldr	w5, [x0]
    fdcc5090:	910c0000 	add	x0, x0, #0x300
    fdcc5094:	f2bfd002 	movk	x2, #0xfe80, lsl #16
    fdcc5098:	53087ca5 	lsr	w5, w5, #8
    fdcc509c:	b9000001 	str	w1, [x0]
    fdcc50a0:	91060000 	add	x0, x0, #0x180
    fdcc50a4:	eb02001f 	cmp	x0, x2
    fdcc50a8:	54ffffa1 	b.ne	0xfdcc509c  // b.any
    fdcc50ac:	97fffa1a 	bl	0xfdcc3914
    fdcc50b0:	2a0003e8 	mov	w8, w0
    fdcc50b4:	350000c4 	cbnz	w4, 0xfdcc50cc
    fdcc50b8:	d2800881 	mov	x1, #0x44                  	// #68
    fdcc50bc:	f2bfd001 	movk	x1, #0xfe80, lsl #16
    fdcc50c0:	b9400020 	ldr	w0, [x1]
    fdcc50c4:	32080000 	orr	w0, w0, #0x1000000
    fdcc50c8:	b9000020 	str	w0, [x1]
    fdcc50cc:	d2800084 	mov	x4, #0x4                   	// #4
    fdcc50d0:	52800021 	mov	w1, #0x1                   	// #1
    fdcc50d4:	f2bfd004 	movk	x4, #0xfe80, lsl #16
    fdcc50d8:	1ac32021 	lsl	w1, w1, w3
    fdcc50dc:	2a2103e1 	mvn	w1, w1
    fdcc50e0:	b9400080 	ldr	w0, [x4]
    fdcc50e4:	331e0c20 	bfi	w0, w1, #2, #4
    fdcc50e8:	b9000080 	str	w0, [x4]
    fdcc50ec:	b9400080 	ldr	w0, [x4]
    fdcc50f0:	32000000 	orr	w0, w0, #0x1
    fdcc50f4:	b9000080 	str	w0, [x4]
    fdcc50f8:	52800640 	mov	w0, #0x32                  	// #50
    fdcc50fc:	97ffefc1 	bl	0xfdcc1000
    fdcc5100:	d2804180 	mov	x0, #0x20c                 	// #524
    fdcc5104:	f2bfd000 	movk	x0, #0xfe80, lsl #16
    fdcc5108:	b9400002 	ldr	w2, [x0]
    fdcc510c:	b9400080 	ldr	w0, [x4]
    fdcc5110:	121f7800 	and	w0, w0, #0xfffffffe
    fdcc5114:	b9000080 	str	w0, [x4]
    fdcc5118:	b9400080 	ldr	w0, [x4]
    fdcc511c:	121a6c00 	and	w0, w0, #0xffffffc3
    fdcc5120:	b9000080 	str	w0, [x4]
    fdcc5124:	2a0803e0 	mov	w0, w8
    fdcc5128:	97fff9ef 	bl	0xfdcc38e4
    fdcc512c:	4a0200a1 	eor	w1, w5, w2
    fdcc5130:	12001021 	and	w1, w1, #0x1f
    fdcc5134:	f27b005f 	tst	x2, #0x20
    fdcc5138:	5a9f0020 	csinv	w0, w1, wzr, eq	// eq = none
    fdcc513c:	d2806001 	mov	x1, #0x300                 	// #768
    fdcc5140:	f2bfd001 	movk	x1, #0xfe80, lsl #16
    fdcc5144:	b9000026 	str	w6, [x1]
    fdcc5148:	b9018026 	str	w6, [x1, #384]
    fdcc514c:	b9030026 	str	w6, [x1, #768]
    fdcc5150:	b9048026 	str	w6, [x1, #1152]
    fdcc5154:	b9060026 	str	w6, [x1, #1536]
    fdcc5158:	350000a7 	cbnz	w7, 0xfdcc516c
    fdcc515c:	d2bfd002 	mov	x2, #0xfe800000            	// #4269801472
    fdcc5160:	b9400041 	ldr	w1, [x2]
    fdcc5164:	120b7821 	and	w1, w1, #0xffefffff
    fdcc5168:	b9000041 	str	w1, [x2]
    fdcc516c:	d2808901 	mov	x1, #0x448                 	// #1096
    fdcc5170:	7100047f 	cmp	w3, #0x1
    fdcc5174:	f2bfd001 	movk	x1, #0xfe80, lsl #16
    fdcc5178:	b9400022 	ldr	w2, [x1]
    fdcc517c:	54000129 	b.ls	0xfdcc51a0  // b.plast
    fdcc5180:	52800061 	mov	w1, #0x3                   	// #3
    fdcc5184:	4b030023 	sub	w3, w1, w3
    fdcc5188:	531c6c63 	lsl	w3, w3, #4
    fdcc518c:	1ac32443 	lsr	w3, w2, w3
    fdcc5190:	f240287f 	tst	x3, #0x7ff
    fdcc5194:	5a9f1000 	csinv	w0, w0, wzr, ne	// ne = any
    fdcc5198:	a8c17bfd 	ldp	x29, x30, [sp], #16
    fdcc519c:	d65f03c0 	ret
    fdcc51a0:	2a030003 	orr	w3, w0, w3
    fdcc51a4:	35ffffa3 	cbnz	w3, 0xfdcc5198
    fdcc51a8:	d2806f04 	mov	x4, #0x378                 	// #888
    fdcc51ac:	120010a5 	and	w5, w5, #0x1f
    fdcc51b0:	d2800000 	mov	x0, #0x0                   	// #0
    fdcc51b4:	52800022 	mov	w2, #0x1                   	// #1
    fdcc51b8:	d2803003 	mov	x3, #0x180                 	// #384
    fdcc51bc:	f2bfd004 	movk	x4, #0xfe80, lsl #16
    fdcc51c0:	1ac02041 	lsl	w1, w2, w0
    fdcc51c4:	6a05003f 	tst	w1, w5
    fdcc51c8:	540000c0 	b.eq	0xfdcc51e0  // b.none
    fdcc51cc:	9b037c01 	mul	x1, x0, x3
    fdcc51d0:	b8646821 	ldr	w1, [x1, x4]
    fdcc51d4:	d3586821 	ubfx	x1, x1, #24, #3
    fdcc51d8:	7100103f 	cmp	w1, #0x4
    fdcc51dc:	540000c8 	b.hi	0xfdcc51f4  // b.pmore
    fdcc51e0:	91000400 	add	x0, x0, #0x1
    fdcc51e4:	f100141f 	cmp	x0, #0x5
    fdcc51e8:	54fffec1 	b.ne	0xfdcc51c0  // b.any
    fdcc51ec:	52800000 	mov	w0, #0x0                   	// #0
    fdcc51f0:	17ffffea 	b	0xfdcc5198
    fdcc51f4:	12800000 	mov	w0, #0xffffffff            	// #-1
    fdcc51f8:	17ffffe8 	b	0xfdcc5198
    fdcc51fc:	a9bd7bfd 	stp	x29, x30, [sp, #-48]!
    fdcc5200:	910003fd 	mov	x29, sp
    fdcc5204:	a90153f3 	stp	x19, x20, [sp, #16]
    fdcc5208:	aa0103f3 	mov	x19, x1
    fdcc520c:	2a0303f4 	mov	w20, w3
    fdcc5210:	a9025bf5 	stp	x21, x22, [sp, #32]
    fdcc5214:	2a0003f5 	mov	w21, w0
    fdcc5218:	2a0203f6 	mov	w22, w2
    fdcc521c:	37100294 	tbnz	w20, #2, 0xfdcc526c
    fdcc5220:	360800b4 	tbz	w20, #1, 0xfdcc5234
    fdcc5224:	b9407261 	ldr	w1, [x19, #112]
    fdcc5228:	2a1503e0 	mov	w0, w21
    fdcc522c:	97ffff84 	bl	0xfdcc503c
    fdcc5230:	35000260 	cbnz	w0, 0xfdcc527c
    fdcc5234:	362000b4 	tbz	w20, #4, 0xfdcc5248
    fdcc5238:	294d8662 	ldp	w2, w1, [x19, #108]
    fdcc523c:	2a1503e0 	mov	w0, w21
    fdcc5240:	97fffc65 	bl	0xfdcc43d4
    fdcc5244:	350001c0 	cbnz	w0, 0xfdcc527c
    fdcc5248:	121d0280 	and	w0, w20, #0x8
    fdcc524c:	36180194 	tbz	w20, #3, 0xfdcc527c
    fdcc5250:	294d8662 	ldp	w2, w1, [x19, #108]
    fdcc5254:	2a1603e3 	mov	w3, w22
    fdcc5258:	2a1503e0 	mov	w0, w21
    fdcc525c:	a94153f3 	ldp	x19, x20, [sp, #16]
    fdcc5260:	a9425bf5 	ldp	x21, x22, [sp, #32]
    fdcc5264:	a8c37bfd 	ldp	x29, x30, [sp], #48
    fdcc5268:	17fffdc9 	b	0xfdcc498c
    fdcc526c:	b9400022 	ldr	w2, [x1]
    fdcc5270:	b9407021 	ldr	w1, [x1, #112]
    fdcc5274:	97fffd55 	bl	0xfdcc47c8
    fdcc5278:	34fffd40 	cbz	w0, 0xfdcc5220
    fdcc527c:	a94153f3 	ldp	x19, x20, [sp, #16]
    fdcc5280:	a9425bf5 	ldp	x21, x22, [sp, #32]
    fdcc5284:	a8c37bfd 	ldp	x29, x30, [sp], #48
    fdcc5288:	d65f03c0 	ret
    fdcc528c:	a9ba7bfd 	stp	x29, x30, [sp, #-96]!
    fdcc5290:	910003fd 	mov	x29, sp
    fdcc5294:	a90363f7 	stp	x23, x24, [sp, #48]
    fdcc5298:	294d9017 	ldp	w23, w4, [x0, #108]
    fdcc529c:	a90153f3 	stp	x19, x20, [sp, #16]
    fdcc52a0:	aa0003f3 	mov	x19, x0
    fdcc52a4:	a9025bf5 	stp	x21, x22, [sp, #32]
    fdcc52a8:	b9400016 	ldr	w22, [x0]
    fdcc52ac:	d2bfd000 	mov	x0, #0xfe800000            	// #4269801472
    fdcc52b0:	a9046bf9 	stp	x25, x26, [sp, #64]
    fdcc52b4:	b940001a 	ldr	w26, [x0]
    fdcc52b8:	52800000 	mov	w0, #0x0                   	// #0
    fdcc52bc:	f9002bfb 	str	x27, [sp, #80]
    fdcc52c0:	97ffefd2 	bl	0xfdcc1208
    fdcc52c4:	51001c84 	sub	w4, w4, #0x7
    fdcc52c8:	2a0003f5 	mov	w21, w0
    fdcc52cc:	7100049f 	cmp	w4, #0x1
    fdcc52d0:	54000c48 	b.hi	0xfdcc5458  // b.pmore
    fdcc52d4:	d2803601 	mov	x1, #0x1b0                 	// #432
    fdcc52d8:	d2804602 	mov	x2, #0x230                 	// #560
    fdcc52dc:	f2bfd001 	movk	x1, #0xfe80, lsl #16
    fdcc52e0:	f2bfd002 	movk	x2, #0xfe80, lsl #16
    fdcc52e4:	b9400020 	ldr	w0, [x1]
    fdcc52e8:	12106400 	and	w0, w0, #0xffff03ff
    fdcc52ec:	32130400 	orr	w0, w0, #0x6000
    fdcc52f0:	b9000020 	str	w0, [x1]
    fdcc52f4:	b9400058 	ldr	w24, [x2]
    fdcc52f8:	b9400020 	ldr	w0, [x1]
    fdcc52fc:	12106400 	and	w0, w0, #0xffff03ff
    fdcc5300:	d3505f18 	ubfx	x24, x24, #16, #8
    fdcc5304:	32110000 	orr	w0, w0, #0x8000
    fdcc5308:	b9000020 	str	w0, [x1]
    fdcc530c:	b9400059 	ldr	w25, [x2]
    fdcc5310:	d3505f39 	ubfx	x25, x25, #16, #8
    fdcc5314:	aa1303e1 	mov	x1, x19
    fdcc5318:	52800083 	mov	w3, #0x4                   	// #4
    fdcc531c:	52800002 	mov	w2, #0x0                   	// #0
    fdcc5320:	52800000 	mov	w0, #0x0                   	// #0
    fdcc5324:	97ffffb6 	bl	0xfdcc51fc
    fdcc5328:	2a0003f4 	mov	w20, w0
    fdcc532c:	b9400260 	ldr	w0, [x19]
    fdcc5330:	7100041f 	cmp	w0, #0x1
    fdcc5334:	540000e9 	b.ls	0xfdcc5350  // b.plast
    fdcc5338:	aa1303e1 	mov	x1, x19
    fdcc533c:	52800083 	mov	w3, #0x4                   	// #4
    fdcc5340:	52800002 	mov	w2, #0x0                   	// #0
    fdcc5344:	52800020 	mov	w0, #0x1                   	// #1
    fdcc5348:	97ffffad 	bl	0xfdcc51fc
    fdcc534c:	2a000294 	orr	w20, w20, w0
    fdcc5350:	35000714 	cbnz	w20, 0xfdcc5430
    fdcc5354:	b940027b 	ldr	w27, [x19]
    fdcc5358:	7100137f 	cmp	w27, #0x4
    fdcc535c:	540008a0 	b.eq	0xfdcc5470  // b.none
    fdcc5360:	d0000000 	adrp	x0, 0xfdcc7000
    fdcc5364:	91000000 	add	x0, x0, #0x0
    fdcc5368:	9133a007 	add	x7, x0, #0xce8
    fdcc536c:	d2806e06 	mov	x6, #0x370                 	// #880
    fdcc5370:	aa0703e1 	mov	x1, x7
    fdcc5374:	2a1803e4 	mov	w4, w24
    fdcc5378:	52800005 	mov	w5, #0x0                   	// #0
    fdcc537c:	f2bfd006 	movk	x6, #0xfe80, lsl #16
    fdcc5380:	b94000c3 	ldr	w3, [x6]
    fdcc5384:	110004a5 	add	w5, w5, #0x1
    fdcc5388:	710014bf 	cmp	w5, #0x5
    fdcc538c:	910600c6 	add	x6, x6, #0x180
    fdcc5390:	91000821 	add	x1, x1, #0x2
    fdcc5394:	d3505c62 	ubfx	x2, x3, #16, #8
    fdcc5398:	12001c63 	and	w3, w3, #0xff
    fdcc539c:	4b242042 	sub	w2, w2, w4, uxth
    fdcc53a0:	781fe022 	sturh	w2, [x1, #-2]
    fdcc53a4:	b855c0c2 	ldur	w2, [x6, #-164]
    fdcc53a8:	4b242063 	sub	w3, w3, w4, uxth
    fdcc53ac:	79001023 	strh	w3, [x1, #8]
    fdcc53b0:	d3505c43 	ubfx	x3, x2, #16, #8
    fdcc53b4:	12001c42 	and	w2, w2, #0xff
    fdcc53b8:	4b242063 	sub	w3, w3, w4, uxth
    fdcc53bc:	4b242042 	sub	w2, w2, w4, uxth
    fdcc53c0:	79002423 	strh	w3, [x1, #18]
    fdcc53c4:	79003822 	strh	w2, [x1, #28]
    fdcc53c8:	54000701 	b.ne	0xfdcc54a8  // b.any
    fdcc53cc:	528fffe2 	mov	w2, #0x7fff                	// #32767
    fdcc53d0:	5288480a 	mov	w10, #0x4240                	// #16960
    fdcc53d4:	d348335a 	ubfx	x26, x26, #8, #5
    fdcc53d8:	791a2002 	strh	w2, [x0, #3344]
    fdcc53dc:	128fffe2 	mov	w2, #0xffff8000            	// #-32768
    fdcc53e0:	d2800004 	mov	x4, #0x0                   	// #0
    fdcc53e4:	52800001 	mov	w1, #0x0                   	// #0
    fdcc53e8:	528fffe3 	mov	w3, #0x7fff                	// #32767
    fdcc53ec:	d2800148 	mov	x8, #0xa                   	// #10
    fdcc53f0:	52800029 	mov	w9, #0x1                   	// #1
    fdcc53f4:	72a001ea 	movk	w10, #0xf, lsl #16
    fdcc53f8:	5280100b 	mov	w11, #0x80                  	// #128
    fdcc53fc:	791a2402 	strh	w2, [x0, #3346]
    fdcc5400:	128fffe2 	mov	w2, #0xffff8000            	// #-32768
    fdcc5404:	6b0402df 	cmp	w22, w4
    fdcc5408:	54000568 	b.hi	0xfdcc54b4  // b.pmore
    fdcc540c:	34000061 	cbz	w1, 0xfdcc5418
    fdcc5410:	791a2003 	strh	w3, [x0, #3344]
    fdcc5414:	791a2402 	strh	w2, [x0, #3346]
    fdcc5418:	79da2002 	ldrsh	w2, [x0, #3344]
    fdcc541c:	79da2401 	ldrsh	w1, [x0, #3346]
    fdcc5420:	0b020021 	add	w1, w1, w2
    fdcc5424:	52800042 	mov	w2, #0x2                   	// #2
    fdcc5428:	1ac20c21 	sdiv	w1, w1, w2
    fdcc542c:	791a2801 	strh	w1, [x0, #3348]
    fdcc5430:	2a1503e0 	mov	w0, w21
    fdcc5434:	97ffef75 	bl	0xfdcc1208
    fdcc5438:	2a1403e0 	mov	w0, w20
    fdcc543c:	a94153f3 	ldp	x19, x20, [sp, #16]
    fdcc5440:	a9425bf5 	ldp	x21, x22, [sp, #32]
    fdcc5444:	a94363f7 	ldp	x23, x24, [sp, #48]
    fdcc5448:	a9446bf9 	ldp	x25, x26, [sp, #64]
    fdcc544c:	f9402bfb 	ldr	x27, [sp, #80]
    fdcc5450:	a8c67bfd 	ldp	x29, x30, [sp], #96
    fdcc5454:	d65f03c0 	ret
    fdcc5458:	d2802380 	mov	x0, #0x11c                 	// #284
    fdcc545c:	f2bfd000 	movk	x0, #0xfe80, lsl #16
    fdcc5460:	b9400018 	ldr	w24, [x0]
    fdcc5464:	d3505f18 	ubfx	x24, x24, #16, #8
    fdcc5468:	2a1803f9 	mov	w25, w24
    fdcc546c:	17ffffaa 	b	0xfdcc5314
    fdcc5470:	2a1b03e3 	mov	w3, w27
    fdcc5474:	aa1303e1 	mov	x1, x19
    fdcc5478:	52800002 	mov	w2, #0x0                   	// #0
    fdcc547c:	52800040 	mov	w0, #0x2                   	// #2
    fdcc5480:	97ffff5f 	bl	0xfdcc51fc
    fdcc5484:	350000e0 	cbnz	w0, 0xfdcc54a0
    fdcc5488:	2a1b03e3 	mov	w3, w27
    fdcc548c:	aa1303e1 	mov	x1, x19
    fdcc5490:	52800002 	mov	w2, #0x0                   	// #0
    fdcc5494:	52800060 	mov	w0, #0x3                   	// #3
    fdcc5498:	97ffff59 	bl	0xfdcc51fc
    fdcc549c:	34fff620 	cbz	w0, 0xfdcc5360
    fdcc54a0:	2a0003f4 	mov	w20, w0
    fdcc54a4:	17ffffe3 	b	0xfdcc5430
    fdcc54a8:	710004bf 	cmp	w5, #0x1
    fdcc54ac:	1a990304 	csel	w4, w24, w25, eq	// eq = none
    fdcc54b0:	17ffffb4 	b	0xfdcc5380
    fdcc54b4:	9b081c86 	madd	x6, x4, x8, x7
    fdcc54b8:	52800005 	mov	w5, #0x0                   	// #0
    fdcc54bc:	1ac5212c 	lsl	w12, w9, w5
    fdcc54c0:	6a1a019f 	tst	w12, w26
    fdcc54c4:	540001c0 	b.eq	0xfdcc54fc  // b.none
    fdcc54c8:	79c000c1 	ldrsh	w1, [x6]
    fdcc54cc:	1b0a7c21 	mul	w1, w1, w10
    fdcc54d0:	1ad70c21 	sdiv	w1, w1, w23
    fdcc54d4:	1acb0c21 	sdiv	w1, w1, w11
    fdcc54d8:	13003c21 	sxth	w1, w1
    fdcc54dc:	790000c1 	strh	w1, [x6]
    fdcc54e0:	6b01007f 	cmp	w3, w1
    fdcc54e4:	1a81b063 	csel	w3, w3, w1, lt	// lt = tstop
    fdcc54e8:	6b01005f 	cmp	w2, w1
    fdcc54ec:	1a81c042 	csel	w2, w2, w1, gt
    fdcc54f0:	52800021 	mov	w1, #0x1                   	// #1
    fdcc54f4:	13003c63 	sxth	w3, w3
    fdcc54f8:	13003c42 	sxth	w2, w2
    fdcc54fc:	110004a5 	add	w5, w5, #0x1
    fdcc5500:	910008c6 	add	x6, x6, #0x2
    fdcc5504:	710014bf 	cmp	w5, #0x5
    fdcc5508:	54fffda1 	b.ne	0xfdcc54bc  // b.any
    fdcc550c:	91000484 	add	x4, x4, #0x1
    fdcc5510:	17ffffbd 	b	0xfdcc5404
    fdcc5514:	aa0003e3 	mov	x3, x0
    fdcc5518:	35000462 	cbnz	w2, 0xfdcc55a4
    fdcc551c:	b9401000 	ldr	w0, [x0, #16]
    fdcc5520:	7100001f 	cmp	w0, #0x0
    fdcc5524:	1a9f17e0 	cset	w0, eq	// eq = none
    fdcc5528:	11000400 	add	w0, w0, #0x1
    fdcc552c:	b9400464 	ldr	w4, [x3, #4]
    fdcc5530:	d2800025 	mov	x5, #0x1                   	// #1
    fdcc5534:	b9400c62 	ldr	w2, [x3, #12]
    fdcc5538:	b9401866 	ldr	w6, [x3, #24]
    fdcc553c:	0b040042 	add	w2, w2, w4
    fdcc5540:	b9400864 	ldr	w4, [x3, #8]
    fdcc5544:	0b040000 	add	w0, w0, w4
    fdcc5548:	b9400064 	ldr	w4, [x3]
    fdcc554c:	0b000042 	add	w2, w2, w0
    fdcc5550:	0b060046 	add	w6, w2, w6
    fdcc5554:	7100049f 	cmp	w4, #0x1
    fdcc5558:	9ac620a6 	lsl	x6, x5, x6
    fdcc555c:	54000289 	b.ls	0xfdcc55ac  // b.plast
    fdcc5560:	b9401c60 	ldr	w0, [x3, #28]
    fdcc5564:	7100109f 	cmp	w4, #0x4
    fdcc5568:	0b000040 	add	w0, w2, w0
    fdcc556c:	9ac020a0 	lsl	x0, x5, x0
    fdcc5570:	54000201 	b.ne	0xfdcc55b0  // b.any
    fdcc5574:	29440c64 	ldp	w4, w3, [x3, #32]
    fdcc5578:	0b040044 	add	w4, w2, w4
    fdcc557c:	0b030042 	add	w2, w2, w3
    fdcc5580:	9ac420a4 	lsl	x4, x5, x4
    fdcc5584:	9ac220a2 	lsl	x2, x5, x2
    fdcc5588:	8b0000c3 	add	x3, x6, x0
    fdcc558c:	8b020084 	add	x4, x4, x2
    fdcc5590:	34000161 	cbz	w1, 0xfdcc55bc
    fdcc5594:	7100043f 	cmp	w1, #0x1
    fdcc5598:	54000040 	b.eq	0xfdcc55a0  // b.none
    fdcc559c:	8b040060 	add	x0, x3, x4
    fdcc55a0:	d65f03c0 	ret
    fdcc55a4:	52800000 	mov	w0, #0x0                   	// #0
    fdcc55a8:	17ffffe1 	b	0xfdcc552c
    fdcc55ac:	d2800000 	mov	x0, #0x0                   	// #0
    fdcc55b0:	d2800002 	mov	x2, #0x0                   	// #0
    fdcc55b4:	d2800004 	mov	x4, #0x0                   	// #0
    fdcc55b8:	17fffff4 	b	0xfdcc5588
    fdcc55bc:	aa0603e0 	mov	x0, x6
    fdcc55c0:	17fffff8 	b	0xfdcc55a0
    fdcc55c4:	aa0103ea 	mov	x10, x1
    fdcc55c8:	2a0203e8 	mov	w8, w2
    fdcc55cc:	aa0003e7 	mov	x7, x0
    fdcc55d0:	2a0303e9 	mov	w9, w3
    fdcc55d4:	a9bf7bfd 	stp	x29, x30, [sp, #-16]!
    fdcc55d8:	52800001 	mov	w1, #0x0                   	// #0
    fdcc55dc:	aa0a03e0 	mov	x0, x10
    fdcc55e0:	910003fd 	mov	x29, sp
    fdcc55e4:	97ffffcc 	bl	0xfdcc5514
    fdcc55e8:	7100211f 	cmp	w8, #0x8
    fdcc55ec:	29418542 	ldp	w2, w1, [x10, #12]
    fdcc55f0:	11005042 	add	w2, w2, #0x14
    fdcc55f4:	4b010041 	sub	w1, w2, w1
    fdcc55f8:	9ac12400 	lsr	x0, x0, x1
    fdcc55fc:	54000908 	b.hi	0xfdcc571c  // b.pmore
    fdcc5600:	f0811ce1 	adrp	x1, 0x64000
    fdcc5604:	912db021 	add	x1, x1, #0xb6c
    fdcc5608:	38684821 	ldrb	w1, [x1, w8, uxtw]
    fdcc560c:	10000062 	adr	x2, 0xfdcc5618
    fdcc5610:	8b218841 	add	x1, x2, w1, sxtb #2
    fdcc5614:	d61f0020 	br	x1
    fdcc5618:	7101001f 	cmp	w0, #0x40
    fdcc561c:	54000269 	b.ls	0xfdcc5668  // b.plast
    fdcc5620:	7102001f 	cmp	w0, #0x80
    fdcc5624:	54000269 	b.ls	0xfdcc5670  // b.plast
    fdcc5628:	7104001f 	cmp	w0, #0x100
    fdcc562c:	54000269 	b.ls	0xfdcc5678  // b.plast
    fdcc5630:	7108041f 	cmp	w0, #0x201
    fdcc5634:	52802084 	mov	w4, #0x104                 	// #260
    fdcc5638:	52802bc0 	mov	w0, #0x15e                 	// #350
    fdcc563c:	1a803084 	csel	w4, w4, w0, cc	// cc = lo, ul, last
    fdcc5640:	11002881 	add	w1, w4, #0xa
    fdcc5644:	528270e0 	mov	w0, #0x1387                	// #4999
    fdcc5648:	1b097c21 	mul	w1, w1, w9
    fdcc564c:	110f9c21 	add	w1, w1, #0x3e7
    fdcc5650:	6b00003f 	cmp	w1, w0
    fdcc5654:	54000a49 	b.ls	0xfdcc579c  // b.plast
    fdcc5658:	52807d00 	mov	w0, #0x3e8                 	// #1000
    fdcc565c:	52800005 	mov	w5, #0x0                   	// #0
    fdcc5660:	1ac00821 	udiv	w1, w1, w0
    fdcc5664:	1400001b 	b	0xfdcc56d0
    fdcc5668:	52800b44 	mov	w4, #0x5a                  	// #90
    fdcc566c:	17fffff5 	b	0xfdcc5640
    fdcc5670:	52800dc4 	mov	w4, #0x6e                  	// #110
    fdcc5674:	17fffff3 	b	0xfdcc5640
    fdcc5678:	52801404 	mov	w4, #0xa0                  	// #160
    fdcc567c:	17fffff1 	b	0xfdcc5640
    fdcc5680:	7104001f 	cmp	w0, #0x100
    fdcc5684:	54000509 	b.ls	0xfdcc5724  // b.plast
    fdcc5688:	7108001f 	cmp	w0, #0x200
    fdcc568c:	54000529 	b.ls	0xfdcc5730  // b.plast
    fdcc5690:	7110041f 	cmp	w0, #0x401
    fdcc5694:	52801406 	mov	w6, #0xa0                  	// #160
    fdcc5698:	52802085 	mov	w5, #0x104                 	// #260
    fdcc569c:	52802bc4 	mov	w4, #0x15e                 	// #350
    fdcc56a0:	528044c0 	mov	w0, #0x226                 	// #550
    fdcc56a4:	1a8530c6 	csel	w6, w6, w5, cc	// cc = lo, ul, last
    fdcc56a8:	1a803084 	csel	w4, w4, w0, cc	// cc = lo, ul, last
    fdcc56ac:	11002881 	add	w1, w4, #0xa
    fdcc56b0:	110028c5 	add	w5, w6, #0xa
    fdcc56b4:	52807d00 	mov	w0, #0x3e8                 	// #1000
    fdcc56b8:	1b097c21 	mul	w1, w1, w9
    fdcc56bc:	1b097ca5 	mul	w5, w5, w9
    fdcc56c0:	110f9c21 	add	w1, w1, #0x3e7
    fdcc56c4:	110f9ca5 	add	w5, w5, #0x3e7
    fdcc56c8:	1ac00821 	udiv	w1, w1, w0
    fdcc56cc:	1ac008a5 	udiv	w5, w5, w0
    fdcc56d0:	1b097c82 	mul	w2, w4, w9
    fdcc56d4:	52807d04 	mov	w4, #0x3e8                 	// #1000
    fdcc56d8:	1100fca5 	add	w5, w5, #0x3f
    fdcc56dc:	11000426 	add	w6, w1, #0x1
    fdcc56e0:	110f9c42 	add	w2, w2, #0x3e7
    fdcc56e4:	1100fc21 	add	w1, w1, #0x3f
    fdcc56e8:	53067ca5 	lsr	w5, w5, #6
    fdcc56ec:	d34130c6 	ubfx	x6, x6, #1, #12
    fdcc56f0:	d3463021 	ubfx	x1, x1, #6, #7
    fdcc56f4:	910010e7 	add	x7, x7, #0x4
    fdcc56f8:	1ac40842 	udiv	w2, w2, w4
    fdcc56fc:	531018aa 	ubfiz	w10, w5, #16, #7
    fdcc5700:	51001904 	sub	w4, w8, #0x6
    fdcc5704:	530818a5 	ubfiz	w5, w5, #24, #7
    fdcc5708:	11000442 	add	w2, w2, #0x1
    fdcc570c:	d3412842 	ubfx	x2, x2, #1, #10
    fdcc5710:	b85fc0e0 	ldur	w0, [x7, #-4]
    fdcc5714:	3100041f 	cmn	w0, #0x1
    fdcc5718:	54000481 	b.ne	0xfdcc57a8  // b.any
    fdcc571c:	a8c17bfd 	ldp	x29, x30, [sp], #16
    fdcc5720:	d65f03c0 	ret
    fdcc5724:	52800b46 	mov	w6, #0x5a                  	// #90
    fdcc5728:	52801404 	mov	w4, #0xa0                  	// #160
    fdcc572c:	17ffffe0 	b	0xfdcc56ac
    fdcc5730:	52800dc6 	mov	w6, #0x6e                  	// #110
    fdcc5734:	52802084 	mov	w4, #0x104                 	// #260
    fdcc5738:	17ffffdd 	b	0xfdcc56ac
    fdcc573c:	7108041f 	cmp	w0, #0x201
    fdcc5740:	52801044 	mov	w4, #0x82                  	// #130
    fdcc5744:	52801a40 	mov	w0, #0xd2                  	// #210
    fdcc5748:	1a803084 	csel	w4, w4, w0, cc	// cc = lo, ul, last
    fdcc574c:	11002881 	add	w1, w4, #0xa
    fdcc5750:	1b097c21 	mul	w1, w1, w9
    fdcc5754:	110f9c21 	add	w1, w1, #0x3e7
    fdcc5758:	711f3c3f 	cmp	w1, #0x7cf
    fdcc575c:	54fff7e8 	b.hi	0xfdcc5658  // b.pmore
    fdcc5760:	52800005 	mov	w5, #0x0                   	// #0
    fdcc5764:	52800041 	mov	w1, #0x2                   	// #2
    fdcc5768:	17ffffda 	b	0xfdcc56d0
    fdcc576c:	7104001f 	cmp	w0, #0x100
    fdcc5770:	540000e9 	b.ls	0xfdcc578c  // b.plast
    fdcc5774:	7108001f 	cmp	w0, #0x200
    fdcc5778:	540000e9 	b.ls	0xfdcc5794  // b.plast
    fdcc577c:	7110041f 	cmp	w0, #0x401
    fdcc5780:	52802304 	mov	w4, #0x118                 	// #280
    fdcc5784:	52802f80 	mov	w0, #0x17c                 	// #380
    fdcc5788:	17fffff0 	b	0xfdcc5748
    fdcc578c:	52801044 	mov	w4, #0x82                  	// #130
    fdcc5790:	17ffffef 	b	0xfdcc574c
    fdcc5794:	52801684 	mov	w4, #0xb4                  	// #180
    fdcc5798:	17ffffed 	b	0xfdcc574c
    fdcc579c:	52800005 	mov	w5, #0x0                   	// #0
    fdcc57a0:	528000a1 	mov	w1, #0x5                   	// #5
    fdcc57a4:	17ffffcb 	b	0xfdcc56d0
    fdcc57a8:	7104801f 	cmp	w0, #0x120
    fdcc57ac:	54000140 	b.eq	0xfdcc57d4  // b.none
    fdcc57b0:	7104e01f 	cmp	w0, #0x138
    fdcc57b4:	540002c0 	b.eq	0xfdcc580c  // b.none
    fdcc57b8:	7101901f 	cmp	w0, #0x64
    fdcc57bc:	54000241 	b.ne	0xfdcc5804  // b.any
    fdcc57c0:	b94000e0 	ldr	w0, [x7]
    fdcc57c4:	12165400 	and	w0, w0, #0xfffffc00
    fdcc57c8:	2a000040 	orr	w0, w2, w0
    fdcc57cc:	b90000e0 	str	w0, [x7]
    fdcc57d0:	1400000d 	b	0xfdcc5804
    fdcc57d4:	71000d1f 	cmp	w8, #0x3
    fdcc57d8:	54000040 	b.eq	0xfdcc57e0  // b.none
    fdcc57dc:	35000148 	cbnz	w8, 0xfdcc5804
    fdcc57e0:	b94000e3 	ldr	w3, [x7]
    fdcc57e4:	12196063 	and	w3, w3, #0xffffff80
    fdcc57e8:	2a030023 	orr	w3, w1, w3
    fdcc57ec:	350000a8 	cbnz	w8, 0xfdcc5800
    fdcc57f0:	12096063 	and	w3, w3, #0xff80ffff
    fdcc57f4:	2a030143 	orr	w3, w10, w3
    fdcc57f8:	12016063 	and	w3, w3, #0x80ffffff
    fdcc57fc:	2a0300a3 	orr	w3, w5, w3
    fdcc5800:	b90000e3 	str	w3, [x7]
    fdcc5804:	910020e7 	add	x7, x7, #0x8
    fdcc5808:	17ffffc2 	b	0xfdcc5710
    fdcc580c:	7100089f 	cmp	w4, #0x2
    fdcc5810:	54ffffa8 	b.hi	0xfdcc5804  // b.pmore
    fdcc5814:	b94000e0 	ldr	w0, [x7]
    fdcc5818:	12144c00 	and	w0, w0, #0xfffff000
    fdcc581c:	2a0000c0 	orr	w0, w6, w0
    fdcc5820:	17ffffeb 	b	0xfdcc57cc
    fdcc5824:	a9b77bfd 	stp	x29, x30, [sp, #-144]!
    fdcc5828:	910003fd 	mov	x29, sp
    fdcc582c:	a90573fb 	stp	x27, x28, [sp, #80]
    fdcc5830:	b940701c 	ldr	w28, [x0, #112]
    fdcc5834:	a90153f3 	stp	x19, x20, [sp, #16]
    fdcc5838:	aa0003f4 	mov	x20, x0
    fdcc583c:	51001f80 	sub	w0, w28, #0x7
    fdcc5840:	a9025bf5 	stp	x21, x22, [sp, #32]
    fdcc5844:	2a0203f3 	mov	w19, w2
    fdcc5848:	2a0103f6 	mov	w22, w1
    fdcc584c:	a90363f7 	stp	x23, x24, [sp, #48]
    fdcc5850:	7100041f 	cmp	w0, #0x1
    fdcc5854:	a9046bf9 	stp	x25, x26, [sp, #64]
    fdcc5858:	b90063e0 	str	w0, [sp, #96]
    fdcc585c:	b9006be3 	str	w3, [sp, #104]
    fdcc5860:	54000088 	b.hi	0xfdcc5870  // b.pmore
    fdcc5864:	d0000000 	adrp	x0, 0xfdcc7000
    fdcc5868:	b946f400 	ldr	w0, [x0, #1780]
    fdcc586c:	34001820 	cbz	w0, 0xfdcc5b70
    fdcc5870:	52884801 	mov	w1, #0x4240                	// #16960
    fdcc5874:	52800019 	mov	w25, #0x0                   	// #0
    fdcc5878:	72a001e1 	movk	w1, #0xf, lsl #16
    fdcc587c:	2a1303e2 	mov	w2, w19
    fdcc5880:	aa1403e0 	mov	x0, x20
    fdcc5884:	1b017ec1 	mul	w1, w22, w1
    fdcc5888:	97fff4af 	bl	0xfdcc2b44
    fdcc588c:	52800000 	mov	w0, #0x0                   	// #0
    fdcc5890:	97ffee5e 	bl	0xfdcc1208
    fdcc5894:	b90087e0 	str	w0, [sp, #132]
    fdcc5898:	f0000000 	adrp	x0, 0xfdcc8000
    fdcc589c:	91040000 	add	x0, x0, #0x100
    fdcc58a0:	2a1303e2 	mov	w2, w19
    fdcc58a4:	d103e005 	sub	x5, x0, #0xf8
    fdcc58a8:	f9003be0 	str	x0, [sp, #112]
    fdcc58ac:	2a1303e0 	mov	w0, w19
    fdcc58b0:	f9003fe0 	str	x0, [sp, #120]
    fdcc58b4:	d2803b00 	mov	x0, #0x1d8                 	// #472
    fdcc58b8:	b9400283 	ldr	w3, [x20]
    fdcc58bc:	52803b01 	mov	w1, #0x1d8                 	// #472
    fdcc58c0:	9b007c40 	mul	x0, x2, x0
    fdcc58c4:	9ba17e61 	umull	x1, w19, w1
    fdcc58c8:	8b0000a2 	add	x2, x5, x0
    fdcc58cc:	8b0100bb 	add	x27, x5, x1
    fdcc58d0:	b82068a3 	str	w3, [x5, x0]
    fdcc58d4:	2a1603e3 	mov	w3, w22
    fdcc58d8:	b9400e80 	ldr	w0, [x20, #12]
    fdcc58dc:	b9000c40 	str	w0, [x2, #12]
    fdcc58e0:	b9401280 	ldr	w0, [x20, #16]
    fdcc58e4:	b9001040 	str	w0, [x2, #16]
    fdcc58e8:	91020020 	add	x0, x1, #0x80
    fdcc58ec:	8b0000a0 	add	x0, x5, x0
    fdcc58f0:	2a1c03e2 	mov	w2, w28
    fdcc58f4:	aa1403e1 	mov	x1, x20
    fdcc58f8:	97ffff33 	bl	0xfdcc55c4
    fdcc58fc:	d2800500 	mov	x0, #0x28                  	// #40
    fdcc5900:	b9406be2 	ldr	w2, [sp, #104]
    fdcc5904:	f2bfc4a0 	movk	x0, #0xfe25, lsl #16
    fdcc5908:	2a1303e1 	mov	w1, w19
    fdcc590c:	b9400015 	ldr	w21, [x0]
    fdcc5910:	aa1b03e0 	mov	x0, x27
    fdcc5914:	120006b5 	and	w21, w21, #0x3
    fdcc5918:	2a1503e3 	mov	w3, w21
    fdcc591c:	97fffcf0 	bl	0xfdcc4cdc
    fdcc5920:	5288480d 	mov	w13, #0x4240                	// #16960
    fdcc5924:	d2bfb880 	mov	x0, #0xfdc40000            	// #4257480704
    fdcc5928:	72a001ed 	movk	w13, #0xf, lsl #16
    fdcc592c:	320f83e1 	mov	w1, #0x20002               	// #131074
    fdcc5930:	b9000001 	str	w1, [x0]
    fdcc5934:	528657e0 	mov	w0, #0x32bf                	// #12991
    fdcc5938:	1b0d7ecd 	mul	w13, w22, w13
    fdcc593c:	72a06140 	movk	w0, #0x30a, lsl #16
    fdcc5940:	6b0001bf 	cmp	w13, w0
    fdcc5944:	540011a9 	b.ls	0xfdcc5b78  // b.plast
    fdcc5948:	528467e0 	mov	w0, #0x233f                	// #9023
    fdcc594c:	72a0c0a0 	movk	w0, #0x605, lsl #16
    fdcc5950:	6b0001bf 	cmp	w13, w0
    fdcc5954:	54001189 	b.ls	0xfdcc5b84  // b.plast
    fdcc5958:	528087e0 	mov	w0, #0x43f                 	// #1087
    fdcc595c:	72a17f60 	movk	w0, #0xbfb, lsl #16
    fdcc5960:	6b0001bf 	cmp	w13, w0
    fdcc5964:	54001169 	b.ls	0xfdcc5b90  // b.plast
    fdcc5968:	5298c7e0 	mov	w0, #0xc63f                	// #50751
    fdcc596c:	72a2fcc0 	movk	w0, #0x17e6, lsl #16
    fdcc5970:	6b0001bf 	cmp	w13, w0
    fdcc5974:	54001149 	b.ls	0xfdcc5b9c  // b.plast
    fdcc5978:	528947e0 	mov	w0, #0x4a3f                	// #19007
    fdcc597c:	72a5f7c0 	movk	w0, #0x2fbe, lsl #16
    fdcc5980:	6b0001bf 	cmp	w13, w0
    fdcc5984:	54001129 	b.ls	0xfdcc5ba8  // b.plast
    fdcc5988:	52800002 	mov	w2, #0x0                   	// #0
    fdcc598c:	52800000 	mov	w0, #0x0                   	// #0
    fdcc5990:	d2801a06 	mov	x6, #0xd0                  	// #208
    fdcc5994:	531d7263 	lsl	w3, w19, #3
    fdcc5998:	f2bfd006 	movk	x6, #0xfe80, lsl #16
    fdcc599c:	11001067 	add	w7, w3, #0x4
    fdcc59a0:	11000c63 	add	w3, w3, #0x3
    fdcc59a4:	528000e1 	mov	w1, #0x7                   	// #7
    fdcc59a8:	b94000c8 	ldr	w8, [x6]
    fdcc59ac:	52800025 	mov	w5, #0x1                   	// #1
    fdcc59b0:	1ac72021 	lsl	w1, w1, w7
    fdcc59b4:	1ac320a5 	lsl	w5, w5, w3
    fdcc59b8:	2a050021 	orr	w1, w1, w5
    fdcc59bc:	0a210101 	bic	w1, w8, w1
    fdcc59c0:	1ac72000 	lsl	w0, w0, w7
    fdcc59c4:	1ac32042 	lsl	w2, w2, w3
    fdcc59c8:	2a020000 	orr	w0, w0, w2
    fdcc59cc:	2a000020 	orr	w0, w1, w0
    fdcc59d0:	d2800081 	mov	x1, #0x4                   	// #4
    fdcc59d4:	f2bfc4a1 	movk	x1, #0xfe25, lsl #16
    fdcc59d8:	b90000c0 	str	w0, [x6]
    fdcc59dc:	b9400020 	ldr	w0, [x1]
    fdcc59e0:	12000800 	and	w0, w0, #0x7
    fdcc59e4:	71000c1f 	cmp	w0, #0x3
    fdcc59e8:	54ffffa0 	b.eq	0xfdcc59dc  // b.none
    fdcc59ec:	1143fa60 	add	w0, w19, #0xfe, lsl #12
    fdcc59f0:	7100027f 	cmp	w19, #0x0
    fdcc59f4:	11094400 	add	w0, w0, #0x251
    fdcc59f8:	d2801b81 	mov	x1, #0xdc                  	// #220
    fdcc59fc:	f2bfc4a1 	movk	x1, #0xfe25, lsl #16
    fdcc5a00:	53144c00 	lsl	w0, w0, #12
    fdcc5a04:	11037000 	add	w0, w0, #0xdc
    fdcc5a08:	9a811000 	csel	x0, x0, x1, ne	// ne = any
    fdcc5a0c:	71000f9f 	cmp	w28, #0x3
    fdcc5a10:	b9400017 	ldr	w23, [x0]
    fdcc5a14:	54000d01 	b.ne	0xfdcc5bb4  // b.any
    fdcc5a18:	120002f8 	and	w24, w23, #0x1
    fdcc5a1c:	1143faa0 	add	w0, w21, #0xfe, lsl #12
    fdcc5a20:	710002bf 	cmp	w21, #0x0
    fdcc5a24:	11094400 	add	w0, w0, #0x251
    fdcc5a28:	d2801b81 	mov	x1, #0xdc                  	// #220
    fdcc5a2c:	f2bfc4a1 	movk	x1, #0xfe25, lsl #16
    fdcc5a30:	53144c00 	lsl	w0, w0, #12
    fdcc5a34:	11037000 	add	w0, w0, #0xdc
    fdcc5a38:	9a811000 	csel	x0, x0, x1, ne	// ne = any
    fdcc5a3c:	71000f9f 	cmp	w28, #0x3
    fdcc5a40:	b9400002 	ldr	w2, [x0]
    fdcc5a44:	54000c21 	b.ne	0xfdcc5bc8  // b.any
    fdcc5a48:	36000c82 	tbz	w2, #0, 0xfdcc5bd8
    fdcc5a4c:	d2800c01 	mov	x1, #0x60                  	// #96
    fdcc5a50:	f2bfc4a1 	movk	x1, #0xfe25, lsl #16
    fdcc5a54:	b9400020 	ldr	w0, [x1]
    fdcc5a58:	32000000 	orr	w0, w0, #0x1
    fdcc5a5c:	b9000020 	str	w0, [x1]
    fdcc5a60:	97ffee01 	bl	0xfdcc1264
    fdcc5a64:	52800020 	mov	w0, #0x1                   	// #1
    fdcc5a68:	97fff13f 	bl	0xfdcc1f64
    fdcc5a6c:	d2802000 	mov	x0, #0x100                 	// #256
    fdcc5a70:	52820001 	mov	w1, #0x1000                	// #4096
    fdcc5a74:	f2bfb840 	movk	x0, #0xfdc2, lsl #16
    fdcc5a78:	72a60001 	movk	w1, #0x3000, lsl #16
    fdcc5a7c:	b9000001 	str	w1, [x0]
    fdcc5a80:	97ffeefe 	bl	0xfdcc1678
    fdcc5a84:	d2803601 	mov	x1, #0x1b0                 	// #432
    fdcc5a88:	f2bfc4a1 	movk	x1, #0xfe25, lsl #16
    fdcc5a8c:	b9400020 	ldr	w0, [x1]
    fdcc5a90:	121f7800 	and	w0, w0, #0xfffffffe
    fdcc5a94:	b9000020 	str	w0, [x1]
    fdcc5a98:	97ffeefc 	bl	0xfdcc1688
    fdcc5a9c:	97ffeef7 	bl	0xfdcc1678
    fdcc5aa0:	71000f9f 	cmp	w28, #0x3
    fdcc5aa4:	54000040 	b.eq	0xfdcc5aac  // b.none
    fdcc5aa8:	35000a7c 	cbnz	w28, 0xfdcc5bf4
    fdcc5aac:	34000a58 	cbz	w24, 0xfdcc5bf4
    fdcc5ab0:	d2bfc4a1 	mov	x1, #0xfe250000            	// #4263837696
    fdcc5ab4:	b9400020 	ldr	w0, [x1]
    fdcc5ab8:	32110000 	orr	w0, w0, #0x8000
    fdcc5abc:	b9000020 	str	w0, [x1]
    fdcc5ac0:	529c4a21 	mov	w1, #0xe251                	// #57937
    fdcc5ac4:	72a001e1 	movk	w1, #0xf, lsl #16
    fdcc5ac8:	0b0102a2 	add	w2, w21, w1
    fdcc5acc:	710002bf 	cmp	w21, #0x0
    fdcc5ad0:	d2803005 	mov	x5, #0x180                 	// #384
    fdcc5ad4:	53144c42 	lsl	w2, w2, #12
    fdcc5ad8:	f2bfc4a5 	movk	x5, #0xfe25, lsl #16
    fdcc5adc:	11060042 	add	w2, w2, #0x180
    fdcc5ae0:	0b010260 	add	w0, w19, w1
    fdcc5ae4:	9a851042 	csel	x2, x2, x5, ne	// ne = any
    fdcc5ae8:	7100027f 	cmp	w19, #0x0
    fdcc5aec:	53144c00 	lsl	w0, w0, #12
    fdcc5af0:	11060000 	add	w0, w0, #0x180
    fdcc5af4:	b9400043 	ldr	w3, [x2]
    fdcc5af8:	9a851000 	csel	x0, x0, x5, ne	// ne = any
    fdcc5afc:	32020063 	orr	w3, w3, #0x40000000
    fdcc5b00:	b9000043 	str	w3, [x2]
    fdcc5b04:	b9400001 	ldr	w1, [x0]
    fdcc5b08:	32020021 	orr	w1, w1, #0x40000000
    fdcc5b0c:	b9000001 	str	w1, [x0]
    fdcc5b10:	d2bfc4a1 	mov	x1, #0xfe250000            	// #4263837696
    fdcc5b14:	b9400020 	ldr	w0, [x1]
    fdcc5b18:	32030000 	orr	w0, w0, #0x20000000
    fdcc5b1c:	b9000020 	str	w0, [x1]
    fdcc5b20:	b9402820 	ldr	w0, [x1, #40]
    fdcc5b24:	121e7400 	and	w0, w0, #0xfffffffc
    fdcc5b28:	2a130000 	orr	w0, w0, w19
    fdcc5b2c:	b9002820 	str	w0, [x1, #40]
    fdcc5b30:	97ffeed6 	bl	0xfdcc1688
    fdcc5b34:	d2806200 	mov	x0, #0x310                 	// #784
    fdcc5b38:	320b83e1 	mov	w1, #0x200020              	// #2097184
    fdcc5b3c:	f2bfba40 	movk	x0, #0xfdd2, lsl #16
    fdcc5b40:	b9000001 	str	w1, [x0]
    fdcc5b44:	d2900280 	mov	x0, #0x8014                	// #32788
    fdcc5b48:	f2bfba20 	movk	x0, #0xfdd1, lsl #16
    fdcc5b4c:	320087e1 	mov	w1, #0x30003               	// #196611
    fdcc5b50:	b9000001 	str	w1, [x0]
    fdcc5b54:	35000719 	cbnz	w25, 0xfdcc5c34
    fdcc5b58:	52884802 	mov	w2, #0x4240                	// #16960
    fdcc5b5c:	71000f9f 	cmp	w28, #0x3
    fdcc5b60:	72a001e2 	movk	w2, #0xf, lsl #16
    fdcc5b64:	54000501 	b.ne	0xfdcc5c04  // b.any
    fdcc5b68:	52850000 	mov	w0, #0x2800                	// #10240
    fdcc5b6c:	14000029 	b	0xfdcc5c10
    fdcc5b70:	52800039 	mov	w25, #0x1                   	// #1
    fdcc5b74:	17ffff46 	b	0xfdcc588c
    fdcc5b78:	52800022 	mov	w2, #0x1                   	// #1
    fdcc5b7c:	528000a0 	mov	w0, #0x5                   	// #5
    fdcc5b80:	17ffff84 	b	0xfdcc5990
    fdcc5b84:	52800022 	mov	w2, #0x1                   	// #1
    fdcc5b88:	52800080 	mov	w0, #0x4                   	// #4
    fdcc5b8c:	17ffff81 	b	0xfdcc5990
    fdcc5b90:	52800022 	mov	w2, #0x1                   	// #1
    fdcc5b94:	52800060 	mov	w0, #0x3                   	// #3
    fdcc5b98:	17ffff7e 	b	0xfdcc5990
    fdcc5b9c:	52800022 	mov	w2, #0x1                   	// #1
    fdcc5ba0:	52800040 	mov	w0, #0x2                   	// #2
    fdcc5ba4:	17ffff7b 	b	0xfdcc5990
    fdcc5ba8:	52800022 	mov	w2, #0x1                   	// #1
    fdcc5bac:	2a0203e0 	mov	w0, w2
    fdcc5bb0:	17ffff78 	b	0xfdcc5990
    fdcc5bb4:	2a3703f8 	mvn	w24, w23
    fdcc5bb8:	7100039f 	cmp	w28, #0x0
    fdcc5bbc:	12000318 	and	w24, w24, #0x1
    fdcc5bc0:	1a9f0318 	csel	w24, w24, wzr, eq	// eq = none
    fdcc5bc4:	17ffff96 	b	0xfdcc5a1c
    fdcc5bc8:	35fff43c 	cbnz	w28, 0xfdcc5a4c
    fdcc5bcc:	3607f402 	tbz	w2, #0, 0xfdcc5a4c
    fdcc5bd0:	121f3842 	and	w2, w2, #0xfffe
    fdcc5bd4:	14000003 	b	0xfdcc5be0
    fdcc5bd8:	12003c42 	and	w2, w2, #0xffff
    fdcc5bdc:	32000042 	orr	w2, w2, #0x1
    fdcc5be0:	2a1c03e3 	mov	w3, w28
    fdcc5be4:	52800021 	mov	w1, #0x1                   	// #1
    fdcc5be8:	52800060 	mov	w0, #0x3                   	// #3
    fdcc5bec:	97fffad6 	bl	0xfdcc4744
    fdcc5bf0:	17ffff97 	b	0xfdcc5a4c
    fdcc5bf4:	d2bfc4a1 	mov	x1, #0xfe250000            	// #4263837696
    fdcc5bf8:	b9400020 	ldr	w0, [x1]
    fdcc5bfc:	12107800 	and	w0, w0, #0xffff7fff
    fdcc5c00:	17ffffaf 	b	0xfdcc5abc
    fdcc5c04:	71001b9f 	cmp	w28, #0x6
    fdcc5c08:	54fffb01 	b.ne	0xfdcc5b68  // b.any
    fdcc5c0c:	1295dfe0 	mov	w0, #0xffff5100            	// #-44800
    fdcc5c10:	1b007ec0 	mul	w0, w22, w0
    fdcc5c14:	2a1c03e4 	mov	w4, w28
    fdcc5c18:	52800003 	mov	w3, #0x0                   	// #0
    fdcc5c1c:	1ac20c02 	sdiv	w2, w0, w2
    fdcc5c20:	d0000000 	adrp	x0, 0xfdcc7000
    fdcc5c24:	39733001 	ldrb	w1, [x0, #3276]
    fdcc5c28:	52800000 	mov	w0, #0x0                   	// #0
    fdcc5c2c:	4b020022 	sub	w2, w1, w2
    fdcc5c30:	97ffefde 	bl	0xfdcc1ba8
    fdcc5c34:	d2bfb880 	mov	x0, #0xfdc40000            	// #4257480704
    fdcc5c38:	320e83e1 	mov	w1, #0x40004               	// #262148
    fdcc5c3c:	b9000001 	str	w1, [x0]
    fdcc5c40:	d2802401 	mov	x1, #0x120                 	// #288
    fdcc5c44:	f2bfb881 	movk	x1, #0xfdc4, lsl #16
    fdcc5c48:	b9400020 	ldr	w0, [x1]
    fdcc5c4c:	1217001a 	and	w26, w0, #0x200
    fdcc5c50:	374fffc0 	tbnz	w0, #9, 0xfdcc5c48
    fdcc5c54:	53017da0 	lsr	w0, w13, #1
    fdcc5c58:	97ffecf2 	bl	0xfdcc1020
    fdcc5c5c:	d2800881 	mov	x1, #0x44                  	// #68
    fdcc5c60:	f2bfd001 	movk	x1, #0xfe80, lsl #16
    fdcc5c64:	b9400020 	ldr	w0, [x1]
    fdcc5c68:	12007400 	and	w0, w0, #0x3fffffff
    fdcc5c6c:	2a137800 	orr	w0, w0, w19, lsl #30
    fdcc5c70:	b9000020 	str	w0, [x1]
    fdcc5c74:	d2bfb880 	mov	x0, #0xfdc40000            	// #4257480704
    fdcc5c78:	52a00081 	mov	w1, #0x40000               	// #262144
    fdcc5c7c:	b9000001 	str	w1, [x0]
    fdcc5c80:	d2802401 	mov	x1, #0x120                 	// #288
    fdcc5c84:	f2bfb881 	movk	x1, #0xfdc4, lsl #16
    fdcc5c88:	b9400020 	ldr	w0, [x1]
    fdcc5c8c:	364fffe0 	tbz	w0, #9, 0xfdcc5c88
    fdcc5c90:	d2802000 	mov	x0, #0x100                 	// #256
    fdcc5c94:	52840001 	mov	w1, #0x2000                	// #8192
    fdcc5c98:	f2bfb840 	movk	x0, #0xfdc2, lsl #16
    fdcc5c9c:	72a60001 	movk	w1, #0x3000, lsl #16
    fdcc5ca0:	b9000001 	str	w1, [x0]
    fdcc5ca4:	d2806200 	mov	x0, #0x310                 	// #784
    fdcc5ca8:	f2bfba40 	movk	x0, #0xfdd2, lsl #16
    fdcc5cac:	52a00401 	mov	w1, #0x200000              	// #2097152
    fdcc5cb0:	b9000001 	str	w1, [x0]
    fdcc5cb4:	d2900280 	mov	x0, #0x8014                	// #32788
    fdcc5cb8:	f2bfba20 	movk	x0, #0xfdd1, lsl #16
    fdcc5cbc:	52a00061 	mov	w1, #0x30000               	// #196608
    fdcc5cc0:	b9000001 	str	w1, [x0]
    fdcc5cc4:	d2803781 	mov	x1, #0x1bc                 	// #444
    fdcc5cc8:	f2bfc4a1 	movk	x1, #0xfe25, lsl #16
    fdcc5ccc:	b9400020 	ldr	w0, [x1]
    fdcc5cd0:	3607ffe0 	tbz	w0, #0, 0xfdcc5ccc
    fdcc5cd4:	97ffed64 	bl	0xfdcc1264
    fdcc5cd8:	34000739 	cbz	w25, 0xfdcc5dbc
    fdcc5cdc:	d2800600 	mov	x0, #0x30                  	// #48
    fdcc5ce0:	f2bfc4a0 	movk	x0, #0xfe25, lsl #16
    fdcc5ce4:	b9400001 	ldr	w1, [x0]
    fdcc5ce8:	321a0021 	orr	w1, w1, #0x40
    fdcc5cec:	b9000001 	str	w1, [x0]
    fdcc5cf0:	b9400001 	ldr	w1, [x0]
    fdcc5cf4:	121a7821 	and	w1, w1, #0xffffffdf
    fdcc5cf8:	b9000001 	str	w1, [x0]
    fdcc5cfc:	d2800081 	mov	x1, #0x4                   	// #4
    fdcc5d00:	f2bfc4a1 	movk	x1, #0xfe25, lsl #16
    fdcc5d04:	b9400020 	ldr	w0, [x1]
    fdcc5d08:	12180400 	and	w0, w0, #0x300
    fdcc5d0c:	710c001f 	cmp	w0, #0x300
    fdcc5d10:	54ffffa1 	b.ne	0xfdcc5d04  // b.any
    fdcc5d14:	d2801280 	mov	x0, #0x94                  	// #148
    fdcc5d18:	f2bfd000 	movk	x0, #0xfe80, lsl #16
    fdcc5d1c:	b9400001 	ldr	w1, [x0]
    fdcc5d20:	12187821 	and	w1, w1, #0xffffff7f
    fdcc5d24:	b9000001 	str	w1, [x0]
    fdcc5d28:	b9400001 	ldr	w1, [x0]
    fdcc5d2c:	32190021 	orr	w1, w1, #0x80
    fdcc5d30:	b9000001 	str	w1, [x0]
    fdcc5d34:	b9400001 	ldr	w1, [x0]
    fdcc5d38:	12187821 	and	w1, w1, #0xffffff7f
    fdcc5d3c:	b9000001 	str	w1, [x0]
    fdcc5d40:	35000459 	cbnz	w25, 0xfdcc5dc8
    fdcc5d44:	1143fa66 	add	w6, w19, #0xfe, lsl #12
    fdcc5d48:	7100027f 	cmp	w19, #0x0
    fdcc5d4c:	110944c6 	add	w6, w6, #0x251
    fdcc5d50:	d2801c00 	mov	x0, #0xe0                  	// #224
    fdcc5d54:	f2bfc4a0 	movk	x0, #0xfe25, lsl #16
    fdcc5d58:	d0000019 	adrp	x25, 0xfdcc7000
    fdcc5d5c:	53144cc6 	lsl	w6, w6, #12
    fdcc5d60:	91000339 	add	x25, x25, #0x0
    fdcc5d64:	110380c7 	add	w7, w6, #0xe0
    fdcc5d68:	9a8010e7 	csel	x7, x7, x0, ne	// ne = any
    fdcc5d6c:	71001b9f 	cmp	w28, #0x6
    fdcc5d70:	b94000e8 	ldr	w8, [x7]
    fdcc5d74:	54000481 	b.ne	0xfdcc5e04  // b.any
    fdcc5d78:	2a1c03e3 	mov	w3, w28
    fdcc5d7c:	53107ee2 	lsr	w2, w23, #16
    fdcc5d80:	52800021 	mov	w1, #0x1                   	// #1
    fdcc5d84:	528001e0 	mov	w0, #0xf                   	// #15
    fdcc5d88:	97fffa6f 	bl	0xfdcc4744
    fdcc5d8c:	12003ee2 	and	w2, w23, #0xffff
    fdcc5d90:	52800041 	mov	w1, #0x2                   	// #2
    fdcc5d94:	528001e0 	mov	w0, #0xf                   	// #15
    fdcc5d98:	97fffa6b 	bl	0xfdcc4744
    fdcc5d9c:	52800061 	mov	w1, #0x3                   	// #3
    fdcc5da0:	53107d02 	lsr	w2, w8, #16
    fdcc5da4:	528001e0 	mov	w0, #0xf                   	// #15
    fdcc5da8:	97fffa67 	bl	0xfdcc4744
    fdcc5dac:	b94cab22 	ldr	w2, [x25, #3240]
    fdcc5db0:	52800161 	mov	w1, #0xb                   	// #11
    fdcc5db4:	528001e0 	mov	w0, #0xf                   	// #15
    fdcc5db8:	14000056 	b	0xfdcc5f10
    fdcc5dbc:	52800000 	mov	w0, #0x0                   	// #0
    fdcc5dc0:	97fff069 	bl	0xfdcc1f64
    fdcc5dc4:	17ffffd4 	b	0xfdcc5d14
    fdcc5dc8:	2a1303e1 	mov	w1, w19
    fdcc5dcc:	aa1b03e0 	mov	x0, x27
    fdcc5dd0:	97fff4ea 	bl	0xfdcc3178
    fdcc5dd4:	d2800601 	mov	x1, #0x30                  	// #48
    fdcc5dd8:	f2bfc4a1 	movk	x1, #0xfe25, lsl #16
    fdcc5ddc:	b9400020 	ldr	w0, [x1]
    fdcc5de0:	12197800 	and	w0, w0, #0xffffffbf
    fdcc5de4:	b9000020 	str	w0, [x1]
    fdcc5de8:	d2800081 	mov	x1, #0x4                   	// #4
    fdcc5dec:	f2bfc4a1 	movk	x1, #0xfe25, lsl #16
    fdcc5df0:	b9400020 	ldr	w0, [x1]
    fdcc5df4:	12000800 	and	w0, w0, #0x7
    fdcc5df8:	71000c1f 	cmp	w0, #0x3
    fdcc5dfc:	54fffa41 	b.ne	0xfdcc5d44  // b.any
    fdcc5e00:	17fffffc 	b	0xfdcc5df0
    fdcc5e04:	71000f9f 	cmp	w28, #0x3
    fdcc5e08:	54000460 	b.eq	0xfdcc5e94  // b.none
    fdcc5e0c:	35000c3c 	cbnz	w28, 0xfdcc5f90
    fdcc5e10:	b94000e2 	ldr	w2, [x7]
    fdcc5e14:	52800061 	mov	w1, #0x3                   	// #3
    fdcc5e18:	52800003 	mov	w3, #0x0                   	// #0
    fdcc5e1c:	2a0103e0 	mov	w0, w1
    fdcc5e20:	12003c42 	and	w2, w2, #0xffff
    fdcc5e24:	97fffa48 	bl	0xfdcc4744
    fdcc5e28:	7100027f 	cmp	w19, #0x0
    fdcc5e2c:	1103b0c0 	add	w0, w6, #0xec
    fdcc5e30:	d2801d81 	mov	x1, #0xec                  	// #236
    fdcc5e34:	52800003 	mov	w3, #0x0                   	// #0
    fdcc5e38:	f2bfc4a1 	movk	x1, #0xfe25, lsl #16
    fdcc5e3c:	9a811000 	csel	x0, x0, x1, ne	// ne = any
    fdcc5e40:	528000c1 	mov	w1, #0x6                   	// #6
    fdcc5e44:	b9400002 	ldr	w2, [x0]
    fdcc5e48:	52800060 	mov	w0, #0x3                   	// #3
    fdcc5e4c:	12003c42 	and	w2, w2, #0xffff
    fdcc5e50:	97fffa3d 	bl	0xfdcc4744
    fdcc5e54:	7100027f 	cmp	w19, #0x0
    fdcc5e58:	1103a0c6 	add	w6, w6, #0xe8
    fdcc5e5c:	d2801d00 	mov	x0, #0xe8                  	// #232
    fdcc5e60:	52800003 	mov	w3, #0x0                   	// #0
    fdcc5e64:	f2bfc4a0 	movk	x0, #0xfe25, lsl #16
    fdcc5e68:	9a8010c6 	csel	x6, x6, x0, ne	// ne = any
    fdcc5e6c:	528000a1 	mov	w1, #0x5                   	// #5
    fdcc5e70:	52800060 	mov	w0, #0x3                   	// #3
    fdcc5e74:	b94000c6 	ldr	w6, [x6]
    fdcc5e78:	12003cc2 	and	w2, w6, #0xffff
    fdcc5e7c:	97fffa32 	bl	0xfdcc4744
    fdcc5e80:	53107cc2 	lsr	w2, w6, #16
    fdcc5e84:	52800003 	mov	w3, #0x0                   	// #0
    fdcc5e88:	52800081 	mov	w1, #0x4                   	// #4
    fdcc5e8c:	52800060 	mov	w0, #0x3                   	// #3
    fdcc5e90:	97fffa2d 	bl	0xfdcc4744
    fdcc5e94:	b94000e2 	ldr	w2, [x7]
    fdcc5e98:	2a1c03e3 	mov	w3, w28
    fdcc5e9c:	52800041 	mov	w1, #0x2                   	// #2
    fdcc5ea0:	52800060 	mov	w0, #0x3                   	// #3
    fdcc5ea4:	53107c42 	lsr	w2, w2, #16
    fdcc5ea8:	97fffa27 	bl	0xfdcc4744
    fdcc5eac:	71000f9f 	cmp	w28, #0x3
    fdcc5eb0:	540000c1 	b.ne	0xfdcc5ec8  // b.any
    fdcc5eb4:	b94000e2 	ldr	w2, [x7]
    fdcc5eb8:	2a1c03e1 	mov	w1, w28
    fdcc5ebc:	2a1c03e0 	mov	w0, w28
    fdcc5ec0:	12003c42 	and	w2, w2, #0xffff
    fdcc5ec4:	97fffa20 	bl	0xfdcc4744
    fdcc5ec8:	12003ee2 	and	w2, w23, #0xffff
    fdcc5ecc:	2a1c03e3 	mov	w3, w28
    fdcc5ed0:	52800021 	mov	w1, #0x1                   	// #1
    fdcc5ed4:	52800060 	mov	w0, #0x3                   	// #3
    fdcc5ed8:	53107ef7 	lsr	w23, w23, #16
    fdcc5edc:	97fffa1a 	bl	0xfdcc4744
    fdcc5ee0:	350000f8 	cbnz	w24, 0xfdcc5efc
    fdcc5ee4:	321802e2 	orr	w2, w23, #0x100
    fdcc5ee8:	52800001 	mov	w1, #0x0                   	// #0
    fdcc5eec:	52800060 	mov	w0, #0x3                   	// #3
    fdcc5ef0:	97fffa15 	bl	0xfdcc4744
    fdcc5ef4:	52800040 	mov	w0, #0x2                   	// #2
    fdcc5ef8:	97ffec42 	bl	0xfdcc1000
    fdcc5efc:	529fdfe2 	mov	w2, #0xfeff                	// #65279
    fdcc5f00:	2a1c03e3 	mov	w3, w28
    fdcc5f04:	0a0202e2 	and	w2, w23, w2
    fdcc5f08:	52800001 	mov	w1, #0x0                   	// #0
    fdcc5f0c:	52800060 	mov	w0, #0x3                   	// #3
    fdcc5f10:	97fffa0d 	bl	0xfdcc4744
    fdcc5f14:	d2800c01 	mov	x1, #0x60                  	// #96
    fdcc5f18:	f2bfc4a1 	movk	x1, #0xfe25, lsl #16
    fdcc5f1c:	b9400020 	ldr	w0, [x1]
    fdcc5f20:	121f7800 	and	w0, w0, #0xfffffffe
    fdcc5f24:	b9000020 	str	w0, [x1]
    fdcc5f28:	97ffeccf 	bl	0xfdcc1264
    fdcc5f2c:	b94063e0 	ldr	w0, [sp, #96]
    fdcc5f30:	7100041f 	cmp	w0, #0x1
    fdcc5f34:	54000048 	b.hi	0xfdcc5f3c  // b.pmore
    fdcc5f38:	97ffefff 	bl	0xfdcc1f34
    fdcc5f3c:	52807d57 	mov	w23, #0x3ea                 	// #1002
    fdcc5f40:	f0000004 	adrp	x4, 0xfdcc8000
    fdcc5f44:	91250098 	add	x24, x4, #0x940
    fdcc5f48:	9bb77e77 	umull	x23, w19, w23
    fdcc5f4c:	f9403fe1 	ldr	x1, [sp, #120]
    fdcc5f50:	91003ae0 	add	x0, x23, #0xe
    fdcc5f54:	8b180000 	add	x0, x0, x24
    fdcc5f58:	f90037e0 	str	x0, [sp, #104]
    fdcc5f5c:	913edae0 	add	x0, x23, #0xfb6
    fdcc5f60:	8b1802f7 	add	x23, x23, x24
    fdcc5f64:	8b180000 	add	x0, x0, x24
    fdcc5f68:	f90047e0 	str	x0, [sp, #136]
    fdcc5f6c:	91333320 	add	x0, x25, #0xccc
    fdcc5f70:	f90033e0 	str	x0, [sp, #96]
    fdcc5f74:	f9403be0 	ldr	x0, [sp, #112]
    fdcc5f78:	d103e01c 	sub	x28, x0, #0xf8
    fdcc5f7c:	d2803b00 	mov	x0, #0x1d8                 	// #472
    fdcc5f80:	9b00703c 	madd	x28, x1, x0, x28
    fdcc5f84:	8b010700 	add	x0, x24, x1, lsl #1
    fdcc5f88:	f9003be0 	str	x0, [sp, #112]
    fdcc5f8c:	14000040 	b	0xfdcc608c
    fdcc5f90:	b94063e0 	ldr	w0, [sp, #96]
    fdcc5f94:	7100041f 	cmp	w0, #0x1
    fdcc5f98:	54fffbe8 	b.hi	0xfdcc5f14  // b.pmore
    fdcc5f9c:	b9406be0 	ldr	w0, [sp, #104]
    fdcc5fa0:	529fefe2 	mov	w2, #0xff7f                	// #65407
    fdcc5fa4:	0a020102 	and	w2, w8, w2
    fdcc5fa8:	2a1c03e3 	mov	w3, w28
    fdcc5fac:	528001a1 	mov	w1, #0xd                   	// #13
    fdcc5fb0:	2a001c42 	orr	w2, w2, w0, lsl #7
    fdcc5fb4:	17ffff80 	b	0xfdcc5db4
    fdcc5fb8:	f94033e0 	ldr	x0, [sp, #96]
    fdcc5fbc:	91001003 	add	x3, x0, #0x4
    fdcc5fc0:	d2806c00 	mov	x0, #0x360                 	// #864
    fdcc5fc4:	f2bfd000 	movk	x0, #0xfe80, lsl #16
    fdcc5fc8:	b9400002 	ldr	w2, [x0]
    fdcc5fcc:	38401461 	ldrb	w1, [x3], #1
    fdcc5fd0:	12085c42 	and	w2, w2, #0xff00ffff
    fdcc5fd4:	2a014041 	orr	w1, w2, w1, lsl #16
    fdcc5fd8:	b9000001 	str	w1, [x0]
    fdcc5fdc:	91060000 	add	x0, x0, #0x180
    fdcc5fe0:	d2815c01 	mov	x1, #0xae0                 	// #2784
    fdcc5fe4:	f2bfd001 	movk	x1, #0xfe80, lsl #16
    fdcc5fe8:	eb01001f 	cmp	x0, x1
    fdcc5fec:	54fffee1 	b.ne	0xfdcc5fc8  // b.any
    fdcc5ff0:	2a1303e2 	mov	w2, w19
    fdcc5ff4:	aa1b03e1 	mov	x1, x27
    fdcc5ff8:	52800343 	mov	w3, #0x1a                  	// #26
    fdcc5ffc:	2a1a03e0 	mov	w0, w26
    fdcc6000:	97fffc7f 	bl	0xfdcc51fc
    fdcc6004:	39401702 	ldrb	w2, [x24, #5]
    fdcc6008:	910042e0 	add	x0, x23, #0x10
    fdcc600c:	913ee2e1 	add	x1, x23, #0xfb8
    fdcc6010:	97ffef37 	bl	0xfdcc1cec
    fdcc6014:	b9410b20 	ldr	w0, [x25, #264]
    fdcc6018:	7100081f 	cmp	w0, #0x2
    fdcc601c:	54000201 	b.ne	0xfdcc605c  // b.any
    fdcc6020:	52800c60 	mov	w0, #0x63                  	// #99
    fdcc6024:	97fff217 	bl	0xfdcc2880
    fdcc6028:	52800e60 	mov	w0, #0x73                  	// #115
    fdcc602c:	97fff215 	bl	0xfdcc2880
    fdcc6030:	52800400 	mov	w0, #0x20                  	// #32
    fdcc6034:	97fff213 	bl	0xfdcc2880
    fdcc6038:	2a1a03e0 	mov	w0, w26
    fdcc603c:	97fff253 	bl	0xfdcc2988
    fdcc6040:	52800740 	mov	w0, #0x3a                  	// #58
    fdcc6044:	97fff20f 	bl	0xfdcc2880
    fdcc6048:	52800140 	mov	w0, #0xa                   	// #10
    fdcc604c:	97fff20d 	bl	0xfdcc2880
    fdcc6050:	aa1403e0 	mov	x0, x20
    fdcc6054:	52800301 	mov	w1, #0x18                  	// #24
    fdcc6058:	97fff49c 	bl	0xfdcc32c8
    fdcc605c:	f9403be0 	ldr	x0, [sp, #112]
    fdcc6060:	1100075a 	add	w26, w26, #0x1
    fdcc6064:	39401703 	ldrb	w3, [x24, #5]
    fdcc6068:	9103eaf7 	add	x23, x23, #0xfa
    fdcc606c:	39401302 	ldrb	w2, [x24, #4]
    fdcc6070:	79000c16 	strh	w22, [x0, #6]
    fdcc6074:	f94037e0 	ldr	x0, [sp, #104]
    fdcc6078:	f94047e1 	ldr	x1, [sp, #136]
    fdcc607c:	97ffef50 	bl	0xfdcc1dbc
    fdcc6080:	f94033e0 	ldr	x0, [sp, #96]
    fdcc6084:	91001400 	add	x0, x0, #0x5
    fdcc6088:	f90033e0 	str	x0, [sp, #96]
    fdcc608c:	b9400380 	ldr	w0, [x28]
    fdcc6090:	6b00035f 	cmp	w26, w0
    fdcc6094:	54fff923 	b.cc	0xfdcc5fb8  // b.lo, b.ul, b.last
    fdcc6098:	b9410b20 	ldr	w0, [x25, #264]
    fdcc609c:	7100081f 	cmp	w0, #0x2
    fdcc60a0:	54000081 	b.ne	0xfdcc60b0  // b.any
    fdcc60a4:	aa1403e0 	mov	x0, x20
    fdcc60a8:	52800021 	mov	w1, #0x1                   	// #1
    fdcc60ac:	97fff487 	bl	0xfdcc32c8
    fdcc60b0:	b94087e0 	ldr	w0, [sp, #132]
    fdcc60b4:	97ffec55 	bl	0xfdcc1208
    fdcc60b8:	529c4a21 	mov	w1, #0xe251                	// #57937
    fdcc60bc:	710002bf 	cmp	w21, #0x0
    fdcc60c0:	72a001e1 	movk	w1, #0xf, lsl #16
    fdcc60c4:	0b0102a2 	add	w2, w21, w1
    fdcc60c8:	d2800404 	mov	x4, #0x20                  	// #32
    fdcc60cc:	0b010260 	add	w0, w19, w1
    fdcc60d0:	53144c42 	lsl	w2, w2, #12
    fdcc60d4:	f2bfc4a4 	movk	x4, #0xfe25, lsl #16
    fdcc60d8:	11008042 	add	w2, w2, #0x20
    fdcc60dc:	53144c00 	lsl	w0, w0, #12
    fdcc60e0:	9a841042 	csel	x2, x2, x4, ne	// ne = any
    fdcc60e4:	11008000 	add	w0, w0, #0x20
    fdcc60e8:	7100027f 	cmp	w19, #0x0
    fdcc60ec:	9a841000 	csel	x0, x0, x4, ne	// ne = any
    fdcc60f0:	b9400043 	ldr	w3, [x2]
    fdcc60f4:	a9425bf5 	ldp	x21, x22, [sp, #32]
    fdcc60f8:	12127863 	and	w3, w3, #0xffffdfff
    fdcc60fc:	a94363f7 	ldp	x23, x24, [sp, #48]
    fdcc6100:	a9446bf9 	ldp	x25, x26, [sp, #64]
    fdcc6104:	b9000043 	str	w3, [x2]
    fdcc6108:	b9400001 	ldr	w1, [x0]
    fdcc610c:	12127821 	and	w1, w1, #0xffffdfff
    fdcc6110:	b9000001 	str	w1, [x0]
    fdcc6114:	aa1b03e1 	mov	x1, x27
    fdcc6118:	2a1303e0 	mov	w0, w19
    fdcc611c:	a94153f3 	ldp	x19, x20, [sp, #16]
    fdcc6120:	a94573fb 	ldp	x27, x28, [sp, #80]
    fdcc6124:	a8c97bfd 	ldp	x29, x30, [sp], #144
    fdcc6128:	17ffefaa 	b	0xfdcc1fd0
    fdcc612c:	2a0003e4 	mov	w4, w0
    fdcc6130:	2a0103e3 	mov	w3, w1
    fdcc6134:	a9bf7bfd 	stp	x29, x30, [sp, #-16]!
    fdcc6138:	52800880 	mov	w0, #0x44                  	// #68
    fdcc613c:	910003fd 	mov	x29, sp
    fdcc6140:	97fff1d0 	bl	0xfdcc2880
    fdcc6144:	52800880 	mov	w0, #0x44                  	// #68
    fdcc6148:	97fff1ce 	bl	0xfdcc2880
    fdcc614c:	52800a40 	mov	w0, #0x52                  	// #82
    fdcc6150:	97fff1cc 	bl	0xfdcc2880
    fdcc6154:	52800400 	mov	w0, #0x20                  	// #32
    fdcc6158:	97fff1ca 	bl	0xfdcc2880
    fdcc615c:	52800cc0 	mov	w0, #0x66                  	// #102
    fdcc6160:	97fff1c8 	bl	0xfdcc2880
    fdcc6164:	52800e40 	mov	w0, #0x72                  	// #114
    fdcc6168:	97fff1c6 	bl	0xfdcc2880
    fdcc616c:	52800ca0 	mov	w0, #0x65                  	// #101
    fdcc6170:	97fff1c4 	bl	0xfdcc2880
    fdcc6174:	52800e20 	mov	w0, #0x71                  	// #113
    fdcc6178:	97fff1c2 	bl	0xfdcc2880
    fdcc617c:	52800400 	mov	w0, #0x20                  	// #32
    fdcc6180:	97fff1c0 	bl	0xfdcc2880
    fdcc6184:	52800e80 	mov	w0, #0x74                  	// #116
    fdcc6188:	97fff1be 	bl	0xfdcc2880
    fdcc618c:	52800de0 	mov	w0, #0x6f                  	// #111
    fdcc6190:	97fff1bc 	bl	0xfdcc2880
    fdcc6194:	52800400 	mov	w0, #0x20                  	// #32
    fdcc6198:	97fff1ba 	bl	0xfdcc2880
    fdcc619c:	2a0403e0 	mov	w0, w4
    fdcc61a0:	97fff1fa 	bl	0xfdcc2988
    fdcc61a4:	528009a0 	mov	w0, #0x4d                  	// #77
    fdcc61a8:	97fff1b6 	bl	0xfdcc2880
    fdcc61ac:	52800900 	mov	w0, #0x48                  	// #72
    fdcc61b0:	97fff1b4 	bl	0xfdcc2880
    fdcc61b4:	52800f40 	mov	w0, #0x7a                  	// #122
    fdcc61b8:	97fff1b2 	bl	0xfdcc2880
    fdcc61bc:	52800500 	mov	w0, #0x28                  	// #40
    fdcc61c0:	97fff1b0 	bl	0xfdcc2880
    fdcc61c4:	528008c0 	mov	w0, #0x46                  	// #70
    fdcc61c8:	97fff1ae 	bl	0xfdcc2880
    fdcc61cc:	2a0303e0 	mov	w0, w3
    fdcc61d0:	97fff1ee 	bl	0xfdcc2988
    fdcc61d4:	52800520 	mov	w0, #0x29                  	// #41
    fdcc61d8:	97fff1aa 	bl	0xfdcc2880
    fdcc61dc:	35000323 	cbnz	w3, 0xfdcc6240
    fdcc61e0:	52800500 	mov	w0, #0x28                  	// #40
    fdcc61e4:	97fff1a7 	bl	0xfdcc2880
    fdcc61e8:	52800cc0 	mov	w0, #0x66                  	// #102
    fdcc61ec:	97fff1a5 	bl	0xfdcc2880
    fdcc61f0:	52800d20 	mov	w0, #0x69                  	// #105
    fdcc61f4:	97fff1a3 	bl	0xfdcc2880
    fdcc61f8:	52800dc0 	mov	w0, #0x6e                  	// #110
    fdcc61fc:	97fff1a1 	bl	0xfdcc2880
    fdcc6200:	52800c20 	mov	w0, #0x61                  	// #97
    fdcc6204:	97fff19f 	bl	0xfdcc2880
    fdcc6208:	52800d80 	mov	w0, #0x6c                  	// #108
    fdcc620c:	97fff19d 	bl	0xfdcc2880
    fdcc6210:	52800400 	mov	w0, #0x20                  	// #32
    fdcc6214:	97fff19b 	bl	0xfdcc2880
    fdcc6218:	52800cc0 	mov	w0, #0x66                  	// #102
    fdcc621c:	97fff199 	bl	0xfdcc2880
    fdcc6220:	52800e40 	mov	w0, #0x72                  	// #114
    fdcc6224:	97fff197 	bl	0xfdcc2880
    fdcc6228:	52800ca0 	mov	w0, #0x65                  	// #101
    fdcc622c:	97fff195 	bl	0xfdcc2880
    fdcc6230:	52800e20 	mov	w0, #0x71                  	// #113
    fdcc6234:	97fff193 	bl	0xfdcc2880
    fdcc6238:	52800520 	mov	w0, #0x29                  	// #41
    fdcc623c:	97fff191 	bl	0xfdcc2880
    fdcc6240:	a8c17bfd 	ldp	x29, x30, [sp], #16
    fdcc6244:	52800140 	mov	w0, #0xa                   	// #10
    fdcc6248:	17fff18e 	b	0xfdcc2880
    fdcc624c:	a9bc7bfd 	stp	x29, x30, [sp, #-64]!
    fdcc6250:	52800001 	mov	w1, #0x0                   	// #0
    fdcc6254:	910003fd 	mov	x29, sp
    fdcc6258:	a90153f3 	stp	x19, x20, [sp, #16]
    fdcc625c:	aa0003f3 	mov	x19, x0
    fdcc6260:	b9407014 	ldr	w20, [x0, #112]
    fdcc6264:	a9025bf5 	stp	x21, x22, [sp, #32]
    fdcc6268:	2a1403e0 	mov	w0, w20
    fdcc626c:	a90363f7 	stp	x23, x24, [sp, #48]
    fdcc6270:	97fff11e 	bl	0xfdcc26e8
    fdcc6274:	b0000000 	adrp	x0, 0xfdcc7000
    fdcc6278:	91000000 	add	x0, x0, #0x0
    fdcc627c:	2941d815 	ldp	w21, w22, [x0, #12]
    fdcc6280:	7919901f 	strh	wzr, [x0, #3272]
    fdcc6284:	2942dc18 	ldp	w24, w23, [x0, #20]
    fdcc6288:	6b1602bf 	cmp	w21, w22
    fdcc628c:	1a9622a1 	csel	w1, w21, w22, cs	// cs = hs, nlast
    fdcc6290:	3933301f 	strb	wzr, [x0, #3276]
    fdcc6294:	6b17031f 	cmp	w24, w23
    fdcc6298:	1a972302 	csel	w2, w24, w23, cs	// cs = hs, nlast
    fdcc629c:	6b02003f 	cmp	w1, w2
    fdcc62a0:	1a822021 	csel	w1, w1, w2, cs	// cs = hs, nlast
    fdcc62a4:	b90ce401 	str	w1, [x0, #3300]
    fdcc62a8:	52800001 	mov	w1, #0x0                   	// #0
    fdcc62ac:	2a1403e0 	mov	w0, w20
    fdcc62b0:	97ffebf4 	bl	0xfdcc1280
    fdcc62b4:	2a1403e0 	mov	w0, w20
    fdcc62b8:	52800001 	mov	w1, #0x0                   	// #0
    fdcc62bc:	97ffec2b 	bl	0xfdcc1368
    fdcc62c0:	52800001 	mov	w1, #0x0                   	// #0
    fdcc62c4:	aa1303e0 	mov	x0, x19
    fdcc62c8:	97fff5a8 	bl	0xfdcc3968
    fdcc62cc:	aa1303e0 	mov	x0, x19
    fdcc62d0:	97fffbef 	bl	0xfdcc528c
    fdcc62d4:	340001e0 	cbz	w0, 0xfdcc6310
    fdcc62d8:	528008e0 	mov	w0, #0x47                  	// #71
    fdcc62dc:	97fff169 	bl	0xfdcc2880
    fdcc62e0:	52800be0 	mov	w0, #0x5f                  	// #95
    fdcc62e4:	97fff167 	bl	0xfdcc2880
    fdcc62e8:	52800ae0 	mov	w0, #0x57                  	// #87
    fdcc62ec:	97fff165 	bl	0xfdcc2880
    fdcc62f0:	52800980 	mov	w0, #0x4c                  	// #76
    fdcc62f4:	97fff163 	bl	0xfdcc2880
    fdcc62f8:	52800be0 	mov	w0, #0x5f                  	// #95
    fdcc62fc:	97fff161 	bl	0xfdcc2880
    fdcc6300:	528008a0 	mov	w0, #0x45                  	// #69
    fdcc6304:	97fff15f 	bl	0xfdcc2880
    fdcc6308:	52800140 	mov	w0, #0xa                   	// #10
    fdcc630c:	97fff15d 	bl	0xfdcc2880
    fdcc6310:	2a1603e0 	mov	w0, w22
    fdcc6314:	52800021 	mov	w1, #0x1                   	// #1
    fdcc6318:	97ffff85 	bl	0xfdcc612c
    fdcc631c:	2a1403e0 	mov	w0, w20
    fdcc6320:	52800001 	mov	w1, #0x0                   	// #0
    fdcc6324:	97ffec11 	bl	0xfdcc1368
    fdcc6328:	aa1303e0 	mov	x0, x19
    fdcc632c:	52800023 	mov	w3, #0x1                   	// #1
    fdcc6330:	2a1603e1 	mov	w1, w22
    fdcc6334:	2a0303e2 	mov	w2, w3
    fdcc6338:	97fffd3b 	bl	0xfdcc5824
    fdcc633c:	51001e80 	sub	w0, w20, #0x7
    fdcc6340:	7100041f 	cmp	w0, #0x1
    fdcc6344:	540000a8 	b.hi	0xfdcc6358  // b.pmore
    fdcc6348:	52884800 	mov	w0, #0x4240                	// #16960
    fdcc634c:	72a001e0 	movk	w0, #0xf, lsl #16
    fdcc6350:	1b007ec0 	mul	w0, w22, w0
    fdcc6354:	97fff19e 	bl	0xfdcc29cc
    fdcc6358:	2a1803e0 	mov	w0, w24
    fdcc635c:	52800041 	mov	w1, #0x2                   	// #2
    fdcc6360:	97ffff73 	bl	0xfdcc612c
    fdcc6364:	2a1403e0 	mov	w0, w20
    fdcc6368:	52800001 	mov	w1, #0x0                   	// #0
    fdcc636c:	97ffebff 	bl	0xfdcc1368
    fdcc6370:	52800003 	mov	w3, #0x0                   	// #0
    fdcc6374:	52800042 	mov	w2, #0x2                   	// #2
    fdcc6378:	2a1803e1 	mov	w1, w24
    fdcc637c:	aa1303e0 	mov	x0, x19
    fdcc6380:	97fffd29 	bl	0xfdcc5824
    fdcc6384:	2a1703e0 	mov	w0, w23
    fdcc6388:	52800061 	mov	w1, #0x3                   	// #3
    fdcc638c:	97ffff68 	bl	0xfdcc612c
    fdcc6390:	2a1403e0 	mov	w0, w20
    fdcc6394:	52800001 	mov	w1, #0x0                   	// #0
    fdcc6398:	97ffebf4 	bl	0xfdcc1368
    fdcc639c:	52800023 	mov	w3, #0x1                   	// #1
    fdcc63a0:	52800062 	mov	w2, #0x3                   	// #3
    fdcc63a4:	2a1703e1 	mov	w1, w23
    fdcc63a8:	aa1303e0 	mov	x0, x19
    fdcc63ac:	97fffd1e 	bl	0xfdcc5824
    fdcc63b0:	2a1503e0 	mov	w0, w21
    fdcc63b4:	52800001 	mov	w1, #0x0                   	// #0
    fdcc63b8:	97ffff5d 	bl	0xfdcc612c
    fdcc63bc:	2a1403e0 	mov	w0, w20
    fdcc63c0:	52800001 	mov	w1, #0x0                   	// #0
    fdcc63c4:	97ffebe9 	bl	0xfdcc1368
    fdcc63c8:	52800003 	mov	w3, #0x0                   	// #0
    fdcc63cc:	52800002 	mov	w2, #0x0                   	// #0
    fdcc63d0:	2a1503e1 	mov	w1, w21
    fdcc63d4:	aa1303e0 	mov	x0, x19
    fdcc63d8:	97fffd13 	bl	0xfdcc5824
    fdcc63dc:	2a1403e0 	mov	w0, w20
    fdcc63e0:	52800021 	mov	w1, #0x1                   	// #1
    fdcc63e4:	97ffeba7 	bl	0xfdcc1280
    fdcc63e8:	b9407260 	ldr	w0, [x19, #112]
    fdcc63ec:	52800021 	mov	w1, #0x1                   	// #1
    fdcc63f0:	97fff0be 	bl	0xfdcc26e8
    fdcc63f4:	2a1503e0 	mov	w0, w21
    fdcc63f8:	a94153f3 	ldp	x19, x20, [sp, #16]
    fdcc63fc:	a9425bf5 	ldp	x21, x22, [sp, #32]
    fdcc6400:	a94363f7 	ldp	x23, x24, [sp, #48]
    fdcc6404:	a8c47bfd 	ldp	x29, x30, [sp], #64
    fdcc6408:	17ffefa8 	b	0xfdcc22a8
    fdcc640c:	a9bf7bfd 	stp	x29, x30, [sp, #-16]!
    fdcc6410:	52bfb980 	mov	w0, #0xfdcc0000            	// #-36962304
    fdcc6414:	52bfb9a1 	mov	w1, #0xfdcd0000            	// #-36896768
    fdcc6418:	910003fd 	mov	x29, sp
    fdcc641c:	f9400002 	ldr	x2, [x0]
    fdcc6420:	11400400 	add	w0, w0, #0x1, lsl #12
    fdcc6424:	6b01001f 	cmp	w0, w1
    fdcc6428:	54ffffa1 	b.ne	0xfdcc641c  // b.any
    fdcc642c:	52bfba40 	mov	w0, #0xfdd20000            	// #-36569088
    fdcc6430:	f9400000 	ldr	x0, [x0]
    fdcc6434:	52bfba00 	mov	w0, #0xfdd00000            	// #-36700160
    fdcc6438:	f9400000 	ldr	x0, [x0]
    fdcc643c:	52bfbb20 	mov	w0, #0xfdd90000            	// #-36110336
    fdcc6440:	f9400000 	ldr	x0, [x0]
    fdcc6444:	52bfb880 	mov	w0, #0xfdc40000            	// #-37486592
    fdcc6448:	f9400000 	ldr	x0, [x0]
    fdcc644c:	52bfb840 	mov	w0, #0xfdc20000            	// #-37617664
    fdcc6450:	f9400000 	ldr	x0, [x0]
    fdcc6454:	52900000 	mov	w0, #0x8000                	// #32768
    fdcc6458:	72bfba20 	movk	w0, #0xfdd1, lsl #16
    fdcc645c:	f9400000 	ldr	x0, [x0]
    fdcc6460:	52bfc4a0 	mov	w0, #0xfe250000            	// #-31129600
    fdcc6464:	f9400000 	ldr	x0, [x0]
    fdcc6468:	52bfd000 	mov	w0, #0xfe800000            	// #-25165824
    fdcc646c:	f9400000 	ldr	x0, [x0]
    fdcc6470:	52bfccc0 	mov	w0, #0xfe660000            	// #-26869760
    fdcc6474:	f9400000 	ldr	x0, [x0]
    fdcc6478:	d5033f9f 	dsb	sy
    fdcc647c:	97ffefd8 	bl	0xfdcc23dc
    fdcc6480:	d0000000 	adrp	x0, 0xfdcc8000
    fdcc6484:	91040000 	add	x0, x0, #0x100
    fdcc6488:	9119a002 	add	x2, x0, #0x668
    fdcc648c:	3959a000 	ldrb	w0, [x0, #1640]
    fdcc6490:	97fff0b7 	bl	0xfdcc276c
    fdcc6494:	aa0203e0 	mov	x0, x2
    fdcc6498:	97ffff6d 	bl	0xfdcc624c
    fdcc649c:	a8c17bfd 	ldp	x29, x30, [sp], #16
    fdcc64a0:	17fff05d 	b	0xfdcc2614
	...

Disassembly of section .text_sram:

00000000fdcce000 <.text_sram>:
    fdcce000:	52800301 	mov	w1, #0x18                  	// #24
